(dp1
S'output'
p2
S'<class \'gluon.contrib.pg8000.errors.ProgrammingError\'> (\'ERROR\', \'42601\', \'syntax error at or near "%"\')'
p3
sS'layer'
p4
S'/Users/Abhinav/Documents/Hobbies & Stuff/Computer/Shivam/web2py/applications/Schedule/controllers/default.py'
p5
sS'code'
p6
S'# -*- coding: utf-8 -*-\n# this file is released under public domain and you can use without limitations\n\n#########################################################################\n## This is a sample controller\n## - index is the default action of any application\n## - user is required for authentication and authorization\n## - download is for downloading files uploaded in the db (does streaming)\n## - call exposes all registered services (none by default)\n#########################################################################\n\n\ndef index():\n    """\n    example action using the internationalization operator T and flash\n    rendered by views/default/index.html or views/generic.html\n\n    if you need a simple wiki simply replace the two lines below with:\n    return auth.wiki()\n    """\n    form = auth.login()\n    response.flash = T("Welcome to Scheduler!")\n    return dict(message=form)\n\n\ndef user():\n    """\n    exposes:\n    http://..../[app]/default/user/login\n    http://..../[app]/default/user/logout\n    http://..../[app]/default/user/register\n    http://..../[app]/default/user/profile\n    http://..../[app]/default/user/retrieve_password\n    http://..../[app]/default/user/change_password\n    http://..../[app]/default/user/manage_users (requires membership in\n    use @auth.requires_login()\n        @auth.requires_membership(\'group name\')\n        @auth.requires_permission(\'read\',\'table name\',record_id)\n    to decorate functions that need access control\n    """\n    return dict(form=auth())\n\n@cache.action()\ndef download():\n    """\n    allows downloading of uploaded files\n    http://..../[app]/default/download/[filename]\n    """\n    return response.download(request, db)\n\n\ndef call():\n    """\n    exposes services. for example:\n    http://..../[app]/default/call/jsonrpc\n    decorate with @services.jsonrpc the functions to expose\n    supports xml, json, xmlrpc, jsonrpc, amfrpc, rss, csv\n    """\n    return service()\n\n\n@auth.requires_signature()\ndef data():\n    """\n    http://..../[app]/default/data/tables\n    http://..../[app]/default/data/create/[table]\n    http://..../[app]/default/data/read/[table]/[id]\n    http://..../[app]/default/data/update/[table]/[id]\n    http://..../[app]/default/data/delete/[table]/[id]\n    http://..../[app]/default/data/select/[table]\n    http://..../[app]/default/data/search/[table]\n    but URLs must be signed, i.e. linked with\n      A(\'table\',_href=URL(\'data/tables\',user_signature=True))\n    or with the signed load operator\n      LOAD(\'default\',\'data.load\',args=\'tables\',ajax=True,user_signature=True)\n    """\n    return dict(form=crud())\n\ndef mainpage():\n    record1 = auth.user.first_name+" "+auth.user.last_name\n    record2 = db.executesql("SELECT * FROM usertables where username = %%",auth.user.id)\n    return dict(message0=T("Hello You have successfully logged in!"),message1=record1,message2=record2)\n\nresponse._vars=response._caller(mainpage)\n'
p7
sS'snapshot'
p8
(dp9
S'exception'
p10
(dp11
S'__module__'
p12
S"'gluon.contrib.pg8000.errors'"
p13
sS'__getslice__'
p14
S"<method-wrapper '__getslice__' of ProgrammingError object>"
p15
sS'__str__'
p16
S"<method-wrapper '__str__' of ProgrammingError object>"
p17
sS'__reduce__'
p18
S'<built-in method __reduce__ of ProgrammingError object>'
p19
sS'__dict__'
p20
S'{}'
p21
sS'__sizeof__'
p22
S'<built-in method __sizeof__ of ProgrammingError object>'
p23
sS'__weakref__'
p24
S'None'
p25
sS'__init__'
p26
S"<method-wrapper '__init__' of ProgrammingError object>"
p27
sS'__setattr__'
p28
S"<method-wrapper '__setattr__' of ProgrammingError object>"
p29
sS'__reduce_ex__'
p30
S'<built-in method __reduce_ex__ of ProgrammingError object>'
p31
sS'__new__'
p32
S'<built-in method __new__ of type object>'
p33
sS'__format__'
p34
S'<built-in method __format__ of ProgrammingError object>'
p35
sS'__class__'
p36
S"<class 'gluon.contrib.pg8000.errors.ProgrammingError'>"
p37
sS'__doc__'
p38
S'None'
p39
sS'__getitem__'
p40
S"<method-wrapper '__getitem__' of ProgrammingError object>"
p41
sS'__setstate__'
p42
S'<built-in method __setstate__ of ProgrammingError object>'
p43
sS'__getattribute__'
p44
S"<method-wrapper '__getattribute__' of ProgrammingError object>"
p45
sS'args'
p46
S'(\'ERROR\', \'42601\', \'syntax error at or near "%"\')'
p47
sS'__subclasshook__'
p48
S'<built-in method __subclasshook__ of type object>'
p49
sS'__unicode__'
p50
S'<built-in method __unicode__ of ProgrammingError object>'
p51
sS'__delattr__'
p52
S"<method-wrapper '__delattr__' of ProgrammingError object>"
p53
sS'__repr__'
p54
S"<method-wrapper '__repr__' of ProgrammingError object>"
p55
sS'__hash__'
p56
S"<method-wrapper '__hash__' of ProgrammingError object>"
p57
ssS'evalue'
p58
S'(\'ERROR\', \'42601\', \'syntax error at or near "%"\')'
p59
sS'request'
p60
cgluon.html
XML_unpickle
p61
(S's\xd5_\x00\x00<div><table><tr><td style="font-weight:bold;vertical-align:top;">ajax</td><td style="vertical-align:top;">:</td><td><div>False</div></td></tr><tr><td style="font-weight:bold;vertical-align:top;">application</td><td style="vertical-align:top;">:</td><td><div>Schedule</div></td></tr><tr><td style="font-weight:bold;vertical-align:top;">args</td><td style="vertical-align:top;">:</td><td><div><table></table></div></td></tr><tr><td style="font-weight:bold;vertical-align:top;">cid</td><td style="vertical-align:top;">:</td><td><div>None</div></td></tr><tr><td style="font-weight:bold;vertical-align:top;">client</td><td style="vertical-align:top;">:</td><td><div>127.0.0.1</div></td></tr><tr><td style="font-weight:bold;vertical-align:top;">controller</td><td style="vertical-align:top;">:</td><td><div>default</div></td></tr><tr><td style="font-weight:bold;vertical-align:top;">cookies</td><td style="vertical-align:top;">:</td><td><div><table><tr><td style="font-weight:bold;vertical-align:top;">session_id_admin</td><td style="vertical-align:top;">:</td><td><div>127.0.0.1-79ea93ae-6946-43f8-87ba-fec795a94ea0<table><tr><td style="font-weight:bold;vertical-align:top;">comment</td><td style="vertical-align:top;">:</td><td><div></div></td></tr><tr><td style="font-weight:bold;vertical-align:top;">domain</td><td style="vertical-align:top;">:</td><td><div></div></td></tr><tr><td style="font-weight:bold;vertical-align:top;">expires</td><td style="vertical-align:top;">:</td><td><div></div></td></tr><tr><td style="font-weight:bold;vertical-align:top;">httponly</td><td style="vertical-align:top;">:</td><td><div></div></td></tr><tr><td style="font-weight:bold;vertical-align:top;">max-age</td><td style="vertical-align:top;">:</td><td><div></div></td></tr><tr><td style="font-weight:bold;vertical-align:top;">path</td><td style="vertical-align:top;">:</td><td><div></div></td></tr><tr><td style="font-weight:bold;vertical-align:top;">secure</td><td style="vertical-align:top;">:</td><td><div></div></td></tr><tr><td style="font-weight:bold;vertical-align:top;">version</td><td style="vertical-align:top;">:</td><td><div></div></td></tr></table></div></td></tr><tr><td style="font-weight:bold;vertical-align:top;">session_id_schedule</td><td style="vertical-align:top;">:</td><td><div>127.0.0.1-c579022b-6d9b-472d-8d85-7b9db3318d64<table><tr><td style="font-weight:bold;vertical-align:top;">comment</td><td style="vertical-align:top;">:</td><td><div></div></td></tr><tr><td style="font-weight:bold;vertical-align:top;">domain</td><td style="vertical-align:top;">:</td><td><div></div></td></tr><tr><td style="font-weight:bold;vertical-align:top;">expires</td><td style="vertical-align:top;">:</td><td><div></div></td></tr><tr><td style="font-weight:bold;vertical-align:top;">httponly</td><td style="vertical-align:top;">:</td><td><div></div></td></tr><tr><td style="font-weight:bold;vertical-align:top;">max-age</td><td style="vertical-align:top;">:</td><td><div></div></td></tr><tr><td style="font-weight:bold;vertical-align:top;">path</td><td style="vertical-align:top;">:</td><td><div></div></td></tr><tr><td style="font-weight:bold;vertical-align:top;">secure</td><td style="vertical-align:top;">:</td><td><div></div></td></tr><tr><td style="font-weight:bold;vertical-align:top;">version</td><td style="vertical-align:top;">:</td><td><div></div></td></tr></table></div></td></tr><tr><td style="font-weight:bold;vertical-align:top;">session_id_welcome</td><td style="vertical-align:top;">:</td><td><div>127.0.0.1-eeb5dd77-fc31-4489-a23d-970613dafa77<table><tr><td style="font-weight:bold;vertical-align:top;">comment</td><td style="vertical-align:top;">:</td><td><div></div></td></tr><tr><td style="font-weight:bold;vertical-align:top;">domain</td><td style="vertical-align:top;">:</td><td><div></div></td></tr><tr><td style="font-weight:bold;vertical-align:top;">expires</td><td style="vertical-align:top;">:</td><td><div></div></td></tr><tr><td style="font-weight:bold;vertical-align:top;">httponly</td><td style="vertical-align:top;">:</td><td><div></div></td></tr><tr><td style="font-weight:bold;vertical-align:top;">max-age</td><td style="vertical-align:top;">:</td><td><div></div></td></tr><tr><td style="font-weight:bold;vertical-align:top;">path</td><td style="vertical-align:top;">:</td><td><div></div></td></tr><tr><td style="font-weight:bold;vertical-align:top;">secure</td><td style="vertical-align:top;">:</td><td><div></div></td></tr><tr><td style="font-weight:bold;vertical-align:top;">version</td><td style="vertical-align:top;">:</td><td><div></div></td></tr></table></div></td></tr></table></div></td></tr><tr><td style="font-weight:bold;vertical-align:top;">env</td><td style="vertical-align:top;">:</td><td><div><table><tr><td style="font-weight:bold;vertical-align:top;">HTTP_ACCEPT</td><td style="vertical-align:top;">:</td><td><div>text/html,application/xhtml+xml,application/xml;q=0.9,*/*;q=0.8</div></td></tr><tr><td style="font-weight:bold;vertical-align:top;">HTTP_ACCEPT_ENCODING</td><td style="vertical-align:top;">:</td><td><div>gzip, deflate</div></td></tr><tr><td style="font-weight:bold;vertical-align:top;">HTTP_ACCEPT_LANGUAGE</td><td style="vertical-align:top;">:</td><td><div>en-us</div></td></tr><tr><td style="font-weight:bold;vertical-align:top;">HTTP_CACHE_CONTROL</td><td style="vertical-align:top;">:</td><td><div>max-age=0</div></td></tr><tr><td style="font-weight:bold;vertical-align:top;">HTTP_CONNECTION</td><td style="vertical-align:top;">:</td><td><div>keep-alive</div></td></tr><tr><td style="font-weight:bold;vertical-align:top;">HTTP_COOKIE</td><td style="vertical-align:top;">:</td><td><div>session_id_admin=127.0.0.1-79ea93ae-6946-43f8-87ba-fec795a94ea0; session_id_schedule=127.0.0.1-c579022b-6d9b-472d-8d85-7b9db3318d64; session_id_welcome=127.0.0.1-eeb5dd77-fc31-4489-a23d-970613dafa77</div></td></tr><tr><td style="font-weight:bold;vertical-align:top;">HTTP_HOST</td><td style="vertical-align:top;">:</td><td><div>127.0.0.1:8000</div></td></tr><tr><td style="font-weight:bold;vertical-align:top;">HTTP_ORIGIN</td><td style="vertical-align:top;">:</td><td><div>http://127.0.0.1:8000</div></td></tr><tr><td style="font-weight:bold;vertical-align:top;">HTTP_REFERER</td><td style="vertical-align:top;">:</td><td><div>http://127.0.0.1:8000/Schedule/default/index</div></td></tr><tr><td style="font-weight:bold;vertical-align:top;">HTTP_USER_AGENT</td><td style="vertical-align:top;">:</td><td><div>Mozilla/5.0 (Macintosh; Intel Mac OS X 10_9) AppleWebKit/537.71 (KHTML, like Gecko) Version/7.0 Safari/537.71</div></td></tr><tr><td style="font-weight:bold;vertical-align:top;">PATH_INFO</td><td style="vertical-align:top;">:</td><td><div>/Schedule/default/mainpage.html</div></td></tr><tr><td style="font-weight:bold;vertical-align:top;">QUERY_STRING</td><td style="vertical-align:top;">:</td><td><div></div></td></tr><tr><td style="font-weight:bold;vertical-align:top;">REMOTE_ADDR</td><td style="vertical-align:top;">:</td><td><div>127.0.0.1</div></td></tr><tr><td style="font-weight:bold;vertical-align:top;">REMOTE_PORT</td><td style="vertical-align:top;">:</td><td><div>55703</div></td></tr><tr><td style="font-weight:bold;vertical-align:top;">REQUEST_METHOD</td><td style="vertical-align:top;">:</td><td><div>GET</div></td></tr><tr><td style="font-weight:bold;vertical-align:top;">SCRIPT_NAME</td><td style="vertical-align:top;">:</td><td><div></div></td></tr><tr><td style="font-weight:bold;vertical-align:top;">SERVER_NAME</td><td style="vertical-align:top;">:</td><td><div>Abhinavs-MacBook-Pro.local</div></td></tr><tr><td style="font-weight:bold;vertical-align:top;">SERVER_PORT</td><td style="vertical-align:top;">:</td><td><div>8000</div></td></tr><tr><td style="font-weight:bold;vertical-align:top;">SERVER_PROTOCOL</td><td style="vertical-align:top;">:</td><td><div>HTTP/1.1</div></td></tr><tr><td style="font-weight:bold;vertical-align:top;">SERVER_SOFTWARE</td><td style="vertical-align:top;">:</td><td><div>Rocket 1.2.6</div></td></tr><tr><td style="font-weight:bold;vertical-align:top;">app_folders</td><td style="vertical-align:top;">:</td><td><div>set([&#x27;/Users/Abhinav/Documents/Hobbies &amp; Stuff/Computer/Shivam/web2py/applications/Schedule/&#x27;, &#x27;/Users/Abhinav/Documents/Hobbies &amp; Stuff/Computer/Shivam/web2py/applications/admin/&#x27;, &#x27;/Users/Abhinav/Documents/Hobbies &amp; Stuff/Computer/Shivam/web2py/applications/welcome/&#x27;])</div></td></tr><tr><td style="font-weight:bold;vertical-align:top;">applications_parent</td><td style="vertical-align:top;">:</td><td><div>/Users/Abhinav/Documents/Hobbies &amp; Stuff/Computer/Shivam/web2py</div></td></tr><tr><td style="font-weight:bold;vertical-align:top;">cmd_args</td><td style="vertical-align:top;">:</td><td><div><table></table></div></td></tr><tr><td style="font-weight:bold;vertical-align:top;">cmd_options</td><td style="vertical-align:top;">:</td><td><div>&lt;Values at 0x107c642d8: {&#x27;verbose&#x27;: False, &#x27;ip&#x27;: &#x27;127.0.0.1&#x27;, &#x27;debuglevel&#x27;: 30, &#x27;with_scheduler&#x27;: False, &#x27;ips&#x27;: [&#x27;10.193.8.234&#x27;, &#x27;fe80::1240:f3ff:feaa:8884%en1&#x27;], &#x27;shutdown_timeout&#x27;: 5, &#x27;taskbar&#x27;: False, &#x27;with_coverage&#x27;: False, &#x27;port&#x27;: 8000, &#x27;maxthreads&#x27;: None, &#x27;softcron&#x27;: False, &#x27;server_name&#x27;: &#x27;Abhinavs-MacBook-Pro.local&#x27;, &#x27;bpython&#x27;: False, &#x27;nogui&#x27;: False, &#x27;pid_filename&#x27;: &#x27;httpserver.pid&#x27;, &#x27;extcron&#x27;: False, &#x27;runcron&#x27;: False, &#x27;run_system_tests&#x27;: False, &#x27;test&#x27;: None, &#x27;folder&#x27;: &#x27;/Users/Abhinav/Documents/Hobbies &amp; Stuff/Computer/Shivam/web2py&#x27;, &#x27;config&#x27;: &#x27;&#x27;, &#x27;minthreads&#x27;: None, &#x27;shell&#x27;: None, &#x27;run&#x27;: &#x27;&#x27;, &#x27;log_filename&#x27;: &#x27;httpserver.log&#x27;, &#x27;profiler_dir&#x27;: None, &#x27;args&#x27;: [&#x27;&#x27;], &#x27;socket_timeout&#x27;: 5, &#x27;ssl_ca_certificate&#x27;: None, &#x27;scheduler&#x27;: None, &#x27;interfaces&#x27;: None, &#x27;ssl_private_key&#x27;: &#x27;&#x27;, &#x27;scheduler_groups&#x27;: None, &#x27;password&#x27;: &#x27;&lt;ask&gt;&#x27;, &#x27;request_queue_size&#x27;: 5, &#x27;ssl_certificate&#x27;: &#x27;&#x27;, &#x27;cronjob&#x27;: False, &#x27;numthreads&#x27;: None, &#x27;quiet&#x27;: False, &#x27;import_models&#x27;: False, &#x27;timeout&#x27;: 10, &#x27;plain&#x27;: False, &#x27;nobanner&#x27;: False}&gt;</div></td></tr><tr><td style="font-weight:bold;vertical-align:top;">db_sessions</td><td style="vertical-align:top;">:</td><td><div>set([])</div></td></tr><tr><td style="font-weight:bold;vertical-align:top;">debugging</td><td style="vertical-align:top;">:</td><td><div>True</div></td></tr><tr><td style="font-weight:bold;vertical-align:top;">gluon_parent</td><td style="vertical-align:top;">:</td><td><div>/Users/Abhinav/Documents/Hobbies &amp; Stuff/Computer/Shivam/web2py</div></td></tr><tr><td style="font-weight:bold;vertical-align:top;">http_accept</td><td style="vertical-align:top;">:</td><td><div>text/html,application/xhtml+xml,application/xml;q=0.9,*/*;q=0.8</div></td></tr><tr><td style="font-weight:bold;vertical-align:top;">http_accept_encoding</td><td style="vertical-align:top;">:</td><td><div>gzip, deflate</div></td></tr><tr><td style="font-weight:bold;vertical-align:top;">http_accept_language</td><td style="vertical-align:top;">:</td><td><div>en-us</div></td></tr><tr><td style="font-weight:bold;vertical-align:top;">http_cache_control</td><td style="vertical-align:top;">:</td><td><div>max-age=0</div></td></tr><tr><td style="font-weight:bold;vertical-align:top;">http_connection</td><td style="vertical-align:top;">:</td><td><div>keep-alive</div></td></tr><tr><td style="font-weight:bold;vertical-align:top;">http_cookie</td><td style="vertical-align:top;">:</td><td><div>session_id_admin=127.0.0.1-79ea93ae-6946-43f8-87ba-fec795a94ea0; session_id_schedule=127.0.0.1-c579022b-6d9b-472d-8d85-7b9db3318d64; session_id_welcome=127.0.0.1-eeb5dd77-fc31-4489-a23d-970613dafa77</div></td></tr><tr><td style="font-weight:bold;vertical-align:top;">http_host</td><td style="vertical-align:top;">:</td><td><div>127.0.0.1:8000</div></td></tr><tr><td style="font-weight:bold;vertical-align:top;">http_origin</td><td style="vertical-align:top;">:</td><td><div>http://127.0.0.1:8000</div></td></tr><tr><td style="font-weight:bold;vertical-align:top;">http_referer</td><td style="vertical-align:top;">:</td><td><div>http://127.0.0.1:8000/Schedule/default/index</div></td></tr><tr><td style="font-weight:bold;vertical-align:top;">http_user_agent</td><td style="vertical-align:top;">:</td><td><div>Mozilla/5.0 (Macintosh; Intel Mac OS X 10_9) AppleWebKit/537.71 (KHTML, like Gecko) Version/7.0 Safari/537.71</div></td></tr><tr><td style="font-weight:bold;vertical-align:top;">is_jython</td><td style="vertical-align:top;">:</td><td><div>False</div></td></tr><tr><td style="font-weight:bold;vertical-align:top;">is_pypy</td><td style="vertical-align:top;">:</td><td><div>False</div></td></tr><tr><td style="font-weight:bold;vertical-align:top;">is_source</td><td style="vertical-align:top;">:</td><td><div>True</div></td></tr><tr><td style="font-weight:bold;vertical-align:top;">local_hosts</td><td style="vertical-align:top;">:</td><td><div><table><tr><td><div>Abhinavs-MacBook-Pro.local</div></td></tr><tr><td><div>::ffff:127.0.0.1</div></td></tr><tr><td><div>::1</div></td></tr><tr><td><div>fe80::1240:f3ff:feaa:8884%en1</div></td></tr><tr><td><div>10.193.8.234</div></td></tr><tr><td><div>127.0.0.1</div></td></tr></table></div></td></tr><tr><td style="font-weight:bold;vertical-align:top;">path_info</td><td style="vertical-align:top;">:</td><td><div>/Schedule/default/mainpage.html</div></td></tr><tr><td style="font-weight:bold;vertical-align:top;">query_string</td><td style="vertical-align:top;">:</td><td><div></div></td></tr><tr><td style="font-weight:bold;vertical-align:top;">remote_addr</td><td style="vertical-align:top;">:</td><td><div>127.0.0.1</div></td></tr><tr><td style="font-weight:bold;vertical-align:top;">remote_port</td><td style="vertical-align:top;">:</td><td><div>55703</div></td></tr><tr><td style="font-weight:bold;vertical-align:top;">request_method</td><td style="vertical-align:top;">:</td><td><div>GET</div></td></tr><tr><td style="font-weight:bold;vertical-align:top;">request_uri</td><td style="vertical-align:top;">:</td><td><div>/Schedule/default/mainpage.html</div></td></tr><tr><td style="font-weight:bold;vertical-align:top;">script_name</td><td style="vertical-align:top;">:</td><td><div></div></td></tr><tr><td style="font-weight:bold;vertical-align:top;">server_name</td><td style="vertical-align:top;">:</td><td><div>Abhinavs-MacBook-Pro.local</div></td></tr><tr><td style="font-weight:bold;vertical-align:top;">server_port</td><td style="vertical-align:top;">:</td><td><div>8000</div></td></tr><tr><td style="font-weight:bold;vertical-align:top;">server_protocol</td><td style="vertical-align:top;">:</td><td><div>HTTP/1.1</div></td></tr><tr><td style="font-weight:bold;vertical-align:top;">server_software</td><td style="vertical-align:top;">:</td><td><div>Rocket 1.2.6</div></td></tr><tr><td style="font-weight:bold;vertical-align:top;">web2py_path</td><td style="vertical-align:top;">:</td><td><div>/Users/Abhinav/Documents/Hobbies &amp; Stuff/Computer/Shivam/web2py</div></td></tr><tr><td style="font-weight:bold;vertical-align:top;">web2py_version</td><td style="vertical-align:top;">:</td><td><div>2.9.5-stable+timestamp.2014.03.16.02.35.39</div></td></tr><tr><td style="font-weight:bold;vertical-align:top;">wsgi.errors</td><td style="vertical-align:top;">:</td><td><div>&lt;open file &#x27;&lt;stderr&gt;&#x27;, mode &#x27;w&#x27; at 0x105dc71e0&gt;</div></td></tr><tr><td style="font-weight:bold;vertical-align:top;">wsgi.file_wrapper</td><td style="vertical-align:top;">:</td><td><div>&lt;class wsgiref.util.FileWrapper at 0x107c073f8&gt;</div></td></tr><tr><td style="font-weight:bold;vertical-align:top;">wsgi.input</td><td style="vertical-align:top;">:</td><td><div>&lt;socket._fileobject object at 0x11066b450&gt;</div></td></tr><tr><td style="font-weight:bold;vertical-align:top;">wsgi.multiprocess</td><td style="vertical-align:top;">:</td><td><div>False</div></td></tr><tr><td style="font-weight:bold;vertical-align:top;">wsgi.multithread</td><td style="vertical-align:top;">:</td><td><div>True</div></td></tr><tr><td style="font-weight:bold;vertical-align:top;">wsgi.run_once</td><td style="vertical-align:top;">:</td><td><div>False</div></td></tr><tr><td style="font-weight:bold;vertical-align:top;">wsgi.url_scheme</td><td style="vertical-align:top;">:</td><td><div>http</div></td></tr><tr><td style="font-weight:bold;vertical-align:top;">wsgi.version</td><td style="vertical-align:top;">:</td><td><div><table><tr><td><div>1</div></td></tr><tr><td><div>0</div></td></tr></table></div></td></tr><tr><td style="font-weight:bold;vertical-align:top;">wsgi_errors</td><td style="vertical-align:top;">:</td><td><div>&lt;open file &#x27;&lt;stderr&gt;&#x27;, mode &#x27;w&#x27; at 0x105dc71e0&gt;</div></td></tr><tr><td style="font-weight:bold;vertical-align:top;">wsgi_file_wrapper</td><td style="vertical-align:top;">:</td><td><div>&lt;class wsgiref.util.FileWrapper at 0x107c073f8&gt;</div></td></tr><tr><td style="font-weight:bold;vertical-align:top;">wsgi_input</td><td style="vertical-align:top;">:</td><td><div>&lt;socket._fileobject object at 0x11066b450&gt;</div></td></tr><tr><td style="font-weight:bold;vertical-align:top;">wsgi_multiprocess</td><td style="vertical-align:top;">:</td><td><div>False</div></td></tr><tr><td style="font-weight:bold;vertical-align:top;">wsgi_multithread</td><td style="vertical-align:top;">:</td><td><div>True</div></td></tr><tr><td style="font-weight:bold;vertical-align:top;">wsgi_run_once</td><td style="vertical-align:top;">:</td><td><div>False</div></td></tr><tr><td style="font-weight:bold;vertical-align:top;">wsgi_url_scheme</td><td style="vertical-align:top;">:</td><td><div>http</div></td></tr><tr><td style="font-weight:bold;vertical-align:top;">wsgi_version</td><td style="vertical-align:top;">:</td><td><div><table><tr><td><div>1</div></td></tr><tr><td><div>0</div></td></tr></table></div></td></tr></table></div></td></tr><tr><td style="font-weight:bold;vertical-align:top;">extension</td><td style="vertical-align:top;">:</td><td><div>html</div></td></tr><tr><td style="font-weight:bold;vertical-align:top;">folder</td><td style="vertical-align:top;">:</td><td><div>/Users/Abhinav/Documents/Hobbies &amp; Stuff/Computer/Shivam/web2py/applications/Schedule/</div></td></tr><tr><td style="font-weight:bold;vertical-align:top;">function</td><td style="vertical-align:top;">:</td><td><div>mainpage</div></td></tr><tr><td style="font-weight:bold;vertical-align:top;">global_settings</td><td style="vertical-align:top;">:</td><td><div><table><tr><td style="font-weight:bold;vertical-align:top;">app_folders</td><td style="vertical-align:top;">:</td><td><div>set([&#x27;/Users/Abhinav/Documents/Hobbies &amp; Stuff/Computer/Shivam/web2py/applications/Schedule/&#x27;, &#x27;/Users/Abhinav/Documents/Hobbies &amp; Stuff/Computer/Shivam/web2py/applications/admin/&#x27;, &#x27;/Users/Abhinav/Documents/Hobbies &amp; Stuff/Computer/Shivam/web2py/applications/welcome/&#x27;])</div></td></tr><tr><td style="font-weight:bold;vertical-align:top;">applications_parent</td><td style="vertical-align:top;">:</td><td><div>/Users/Abhinav/Documents/Hobbies &amp; Stuff/Computer/Shivam/web2py</div></td></tr><tr><td style="font-weight:bold;vertical-align:top;">cmd_args</td><td style="vertical-align:top;">:</td><td><div><table></table></div></td></tr><tr><td style="font-weight:bold;vertical-align:top;">cmd_options</td><td style="vertical-align:top;">:</td><td><div>&lt;Values at 0x107c642d8: {&#x27;verbose&#x27;: False, &#x27;ip&#x27;: &#x27;127.0.0.1&#x27;, &#x27;debuglevel&#x27;: 30, &#x27;with_scheduler&#x27;: False, &#x27;ips&#x27;: [&#x27;10.193.8.234&#x27;, &#x27;fe80::1240:f3ff:feaa:8884%en1&#x27;], &#x27;shutdown_timeout&#x27;: 5, &#x27;taskbar&#x27;: False, &#x27;with_coverage&#x27;: False, &#x27;port&#x27;: 8000, &#x27;maxthreads&#x27;: None, &#x27;softcron&#x27;: False, &#x27;server_name&#x27;: &#x27;Abhinavs-MacBook-Pro.local&#x27;, &#x27;bpython&#x27;: False, &#x27;nogui&#x27;: False, &#x27;pid_filename&#x27;: &#x27;httpserver.pid&#x27;, &#x27;extcron&#x27;: False, &#x27;runcron&#x27;: False, &#x27;run_system_tests&#x27;: False, &#x27;test&#x27;: None, &#x27;folder&#x27;: &#x27;/Users/Abhinav/Documents/Hobbies &amp; Stuff/Computer/Shivam/web2py&#x27;, &#x27;config&#x27;: &#x27;&#x27;, &#x27;minthreads&#x27;: None, &#x27;shell&#x27;: None, &#x27;run&#x27;: &#x27;&#x27;, &#x27;log_filename&#x27;: &#x27;httpserver.log&#x27;, &#x27;profiler_dir&#x27;: None, &#x27;args&#x27;: [&#x27;&#x27;], &#x27;socket_timeout&#x27;: 5, &#x27;ssl_ca_certificate&#x27;: None, &#x27;scheduler&#x27;: None, &#x27;interfaces&#x27;: None, &#x27;ssl_private_key&#x27;: &#x27;&#x27;, &#x27;scheduler_groups&#x27;: None, &#x27;password&#x27;: &#x27;&lt;ask&gt;&#x27;, &#x27;request_queue_size&#x27;: 5, &#x27;ssl_certificate&#x27;: &#x27;&#x27;, &#x27;cronjob&#x27;: False, &#x27;numthreads&#x27;: None, &#x27;quiet&#x27;: False, &#x27;import_models&#x27;: False, &#x27;timeout&#x27;: 10, &#x27;plain&#x27;: False, &#x27;nobanner&#x27;: False}&gt;</div></td></tr><tr><td style="font-weight:bold;vertical-align:top;">db_sessions</td><td style="vertical-align:top;">:</td><td><div>set([])</div></td></tr><tr><td style="font-weight:bold;vertical-align:top;">debugging</td><td style="vertical-align:top;">:</td><td><div>True</div></td></tr><tr><td style="font-weight:bold;vertical-align:top;">gluon_parent</td><td style="vertical-align:top;">:</td><td><div>/Users/Abhinav/Documents/Hobbies &amp; Stuff/Computer/Shivam/web2py</div></td></tr><tr><td style="font-weight:bold;vertical-align:top;">is_jython</td><td style="vertical-align:top;">:</td><td><div>False</div></td></tr><tr><td style="font-weight:bold;vertical-align:top;">is_pypy</td><td style="vertical-align:top;">:</td><td><div>False</div></td></tr><tr><td style="font-weight:bold;vertical-align:top;">is_source</td><td style="vertical-align:top;">:</td><td><div>True</div></td></tr><tr><td style="font-weight:bold;vertical-align:top;">local_hosts</td><td style="vertical-align:top;">:</td><td><div><table><tr><td><div>Abhinavs-MacBook-Pro.local</div></td></tr><tr><td><div>::ffff:127.0.0.1</div></td></tr><tr><td><div>::1</div></td></tr><tr><td><div>fe80::1240:f3ff:feaa:8884%en1</div></td></tr><tr><td><div>10.193.8.234</div></td></tr><tr><td><div>127.0.0.1</div></td></tr></table></div></td></tr><tr><td style="font-weight:bold;vertical-align:top;">web2py_version</td><td style="vertical-align:top;">:</td><td><div>2.9.5-stable+timestamp.2014.03.16.02.35.39</div></td></tr></table></div></td></tr><tr><td style="font-weight:bold;vertical-align:top;">is_https</td><td style="vertical-align:top;">:</td><td><div>False</div></td></tr><tr><td style="font-weight:bold;vertical-align:top;">is_local</td><td style="vertical-align:top;">:</td><td><div>True</div></td></tr><tr><td style="font-weight:bold;vertical-align:top;">is_restful</td><td style="vertical-align:top;">:</td><td><div>False</div></td></tr><tr><td style="font-weight:bold;vertical-align:top;">now</td><td style="vertical-align:top;">:</td><td><div>datetime.datetime(2014, 6, 16, 14, 15, 10, 615555)</div></td></tr><tr><td style="font-weight:bold;vertical-align:top;">raw_args</td><td style="vertical-align:top;">:</td><td><div></div></td></tr><tr><td style="font-weight:bold;vertical-align:top;">raw_extension</td><td style="vertical-align:top;">:</td><td><div>html</div></td></tr><tr><td style="font-weight:bold;vertical-align:top;">url</td><td style="vertical-align:top;">:</td><td><div>/Schedule/default/mainpage.html</div></td></tr><tr><td style="font-weight:bold;vertical-align:top;">utcnow</td><td style="vertical-align:top;">:</td><td><div>datetime.datetime(2014, 6, 16, 8, 45, 10, 615563)</div></td></tr><tr><td style="font-weight:bold;vertical-align:top;">uuid</td><td style="vertical-align:top;">:</td><td><div>Schedule/127.0.0.1.2014-06-16.14-15-10.b25d2836-e0bd-4eed-ada7-6be0205db7d6</div></td></tr><tr><td style="font-weight:bold;vertical-align:top;">wsgi</td><td style="vertical-align:top;">:</td><td><div>&lt;gluon.main.LazyWSGI object at 0x110351f10&gt;</div></td></tr></table></div>'
tRp62
sS'frames'
p63
(lp64
(dp65
S'file'
p66
S'/Users/Abhinav/Documents/Hobbies & Stuff/Computer/Shivam/web2py/gluon/restricted.py'
p67
sS'dump'
p68
(dp69
S'environment'
p70
S"{'A': <class 'gluon.html.A'>, 'ANY_OF': <class 'gluon.validators.ANY_OF'>, 'Auth': <class 'gluon.tools.Auth'>, 'B': <class 'gluon.html.B'>, 'BEAUTIFY': <class 'gluon.html.BEAUTIFY'>, 'BODY': <class 'gluon.html.BODY'>, 'BR': <class 'gluon.html.BR'>, 'BUTTON': <class 'gluon.html.BUTTON'>, 'CAT': <class 'gluon.html.CAT'>, 'CENTER': <class 'gluon.html.CENTER'>, ...}"
p71
sS'ccode'
p72
S'<code object <module> at 0x11032e930, file "/Use...ations/Schedule/controllers/default.py", line 13>'
p73
ssS'lnum'
p74
I220
sS'lines'
p75
(dp76
I224
S'        # do not encapsulate (obfuscate) the original RestrictedError'
p77
sI215
S'    try:'
p78
sI216
S'        if isinstance(code, types.CodeType):'
p79
sI217
S'            ccode = code'
p80
sI218
S'        else:'
p81
sI219
S'            ccode = compile2(code, layer)'
p82
sI220
S'        exec ccode in environment'
p83
sI221
S'    except HTTP:'
p84
sI222
S'        raise'
p85
sI223
S'    except RestrictedError:'
p86
ssS'call'
p87
S"(code='# -*- coding: utf-8 -*-\\n# this file is released ...ord2)\\n\\nresponse._vars=response._caller(mainpage)\\n', environment={'A': <class 'gluon.html.A'>, 'ANY_OF': <class 'gluon.validators.ANY_OF'>, 'Auth': <class 'gluon.tools.Auth'>, 'B': <class 'gluon.html.B'>, 'BEAUTIFY': <class 'gluon.html.BEAUTIFY'>, 'BODY': <class 'gluon.html.BODY'>, 'BR': <class 'gluon.html.BR'>, 'BUTTON': <class 'gluon.html.BUTTON'>, 'CAT': <class 'gluon.html.CAT'>, 'CENTER': <class 'gluon.html.CENTER'>, ...}, layer='/Users/Abhinav/Documents/Hobbies & Stuff/Compute...b2py/applications/Schedule/controllers/default.py')"
p88
sS'func'
p89
S'restricted'
p90
sa(dp91
g66
S'/Users/Abhinav/Documents/Hobbies & Stuff/Computer/Shivam/web2py/applications/Schedule/controllers/default.py'
p92
sg68
(dp93
sg74
I84
sg75
(dp94
I73
S"      A('table',_href=URL('data/tables',user_signature=True))"
p95
sI74
S'    or with the signed load operator'
p96
sI75
S"      LOAD('default','data.load',args='tables',ajax=True,user_signature=True)"
p97
sI76
S'    """'
p98
sI77
S'    return dict(form=crud())'
p99
sI78
S''
sI79
S'def mainpage():'
p100
sI80
S'    record1 = auth.user.first_name+" "+auth.user.last_name'
p101
sI81
S'    record2 = db.executesql("SELECT * FROM usertables where username = %%",auth.user.id)'
p102
sI82
S'    return dict(message0=T("Hello You have successfully logged in!"),message1=record1,message2=record2)'
p103
ssg87
S'()'
p104
sg89
S'<module>'
p105
sa(dp106
g66
S'/Users/Abhinav/Documents/Hobbies & Stuff/Computer/Shivam/web2py/gluon/globals.py'
p107
sg68
(dp108
S'self'
p109
S'undefined'
p110
sS'f'
S'<function mainpage>'
p111
ssg74
I385
sg75
(dp112
I384
S'        self._vars = None'
p113
sI385
S'        self._caller = lambda f: f()'
p114
sI386
S'        self._view_environment = None'
p115
sI387
S'        self._custom_commit = None'
p116
sI388
S'        self._custom_rollback = None'
p117
sI389
S''
sI380
S'        self.menu = []             # used by the default view layout'
p118
sI381
S'        self.files = []            # used by web2py_ajax.html'
p119
sI382
S'        self.generic_patterns = []  # patterns to allow generic views'
p120
sI383
S"        self.delimiters = ('{{', '}}')"
p121
ssg87
S'(f=<function mainpage>)'
p122
sg89
S'<lambda>'
p123
sa(dp124
g66
S'/Users/Abhinav/Documents/Hobbies & Stuff/Computer/Shivam/web2py/applications/Schedule/controllers/default.py'
p125
sg68
(dp126
S'auth.user.id'
p127
S'7L'
p128
sS'auth.user'
p129
S"<Row {'username': 'abawa', 'first_name': 'Anshul...word_key': '', 'registration_key': '', 'id': 7L}>"
p130
sS'db.executesql'
p131
S'<bound method DAL.executesql of <DAL uri="postgres:******@localhost/timetable">>'
p132
sS'global auth'
p133
S'<gluon.tools.Auth object>'
p134
sS'record2'
p135
g110
sS'global db'
p136
S'<DAL uri="postgres:******@localhost/timetable">'
p137
ssg74
I81
sg75
(dp138
I73
S"      A('table',_href=URL('data/tables',user_signature=True))"
p139
sI74
S'    or with the signed load operator'
p140
sI75
S"      LOAD('default','data.load',args='tables',ajax=True,user_signature=True)"
p141
sI76
S'    """'
p142
sI77
S'    return dict(form=crud())'
p143
sI78
S''
sI79
S'def mainpage():'
p144
sI80
S'    record1 = auth.user.first_name+" "+auth.user.last_name'
p145
sI81
S'    record2 = db.executesql("SELECT * FROM usertables where username = %%",auth.user.id)'
p146
sI82
S'    return dict(message0=T("Hello You have successfully logged in!"),message1=record1,message2=record2)'
p147
ssg87
S'()'
p148
sg89
S'mainpage'
p149
sa(dp150
g66
S'/Users/Abhinav/Documents/Hobbies & Stuff/Computer/Shivam/web2py/gluon/dal.py'
p151
sg68
(dp152
S'query'
p153
S"'SELECT * FROM usertables where username = %%'"
p154
sS'adapter'
p155
S'<gluon.dal.PostgreSQLAdapter object>'
p156
sS'placeholders'
p157
S'7L'
p158
sS'adapter.execute'
p159
S'<bound method PostgreSQLAdapter.execute of <gluon.dal.PostgreSQLAdapter object>>'
p160
ssg74
I8431
sg75
(dp161
I8426
S'        same order as the fields in the results cursor returned from the DB.'
p162
sI8427
S''
sI8428
S'        """'
p163
sI8429
S'        adapter = self._adapter'
p164
sI8430
S'        if placeholders:'
p165
sI8431
S'            adapter.execute(query, placeholders)'
p166
sI8432
S'        else:'
p167
sI8433
S'            adapter.execute(query)'
p168
sI8434
S'        if as_dict or as_ordered_dict:'
p169
sI8435
S"            if not hasattr(adapter.cursor,'description'):"
p170
ssg87
S'(self=<DAL uri="postgres:******@localhost/timetable">, query=\'SELECT * FROM usertables where username = %%\', placeholders=7L, as_dict=False, fields=None, colnames=None, as_ordered_dict=False)'
p171
sg89
S'executesql'
p172
sa(dp173
g66
S'/Users/Abhinav/Documents/Hobbies & Stuff/Computer/Shivam/web2py/gluon/dal.py'
p174
sg68
(dp175
S'a'
S"('SELECT * FROM usertables where username = %%', 7L)"
p176
sS'self'
p177
S'<gluon.dal.PostgreSQLAdapter object>'
p178
sS'b'
g21
sS'self.log_execute'
p179
S'<bound method PostgreSQLAdapter.log_execute of <gluon.dal.PostgreSQLAdapter object>>'
p180
ssg74
I1969
sg75
(dp181
I1964
S'        self.db._timings.append((command,time.time()-t0))'
p182
sI1965
S'        del self.db._timings[:-TIMINGSSIZE]'
p183
sI1966
S'        return ret'
p184
sI1967
S''
sI1968
S'    def execute(self, *a, **b):'
p185
sI1969
S'        return self.log_execute(*a, **b)'
p186
sI1970
S''
sI1971
S'    def represent(self, obj, fieldtype):'
p187
sI1972
S'        field_is_type = fieldtype.startswith'
p188
sI1973
S'        if isinstance(obj, CALLABLETYPES):'
p189
ssg87
S"(self=<gluon.dal.PostgreSQLAdapter object>, *a=('SELECT * FROM usertables where username = %%', 7L), **b={})"
p190
sg89
S'execute'
p191
sa(dp192
g66
S'/Users/Abhinav/Documents/Hobbies & Stuff/Computer/Shivam/web2py/gluon/dal.py'
p193
sg68
(dp194
S'a'
S"('SELECT * FROM usertables where username = %%', 7L)"
p195
sS'b'
g21
sS'self'
p196
S'<gluon.dal.PostgreSQLAdapter object>'
p197
sS'ret'
p198
g110
sS'self.cursor'
p199
S'<gluon.contrib.pg8000.dbapi.CursorWrapper object>'
p200
sS'command'
p201
S"'SELECT * FROM usertables where username = %%'"
p202
sS'self.cursor.execute'
p203
S'<bound method CursorWrapper._fn of <gluon.contrib.pg8000.dbapi.CursorWrapper object>>'
p204
ssg74
I1963
sg75
(dp205
I1958
S'            command = self.filter_sql_command(command)'
p206
sI1959
S'        if self.db._debug:'
p207
sI1960
S"            LOGGER.debug('SQL: %s' % command)"
p208
sI1961
S'        self.db._lastsql = command'
p209
sI1962
S'        t0 = time.time()'
p210
sI1963
S'        ret = self.cursor.execute(command, *a[1:], **b)'
p211
sI1964
S'        self.db._timings.append((command,time.time()-t0))'
p212
sI1965
S'        del self.db._timings[:-TIMINGSSIZE]'
p213
sI1966
S'        return ret'
p214
sI1967
S''
ssg87
S"(self=<gluon.dal.PostgreSQLAdapter object>, *a=('SELECT * FROM usertables where username = %%', 7L), **b={})"
p215
sg89
S'log_execute'
p216
sa(dp217
g66
S'/Users/Abhinav/Documents/Hobbies & Stuff/Computer/Shivam/web2py/gluon/contrib/pg8000/dbapi.py'
p218
sg68
(dp219
S'self'
p220
S'<gluon.contrib.pg8000.dbapi.CursorWrapper object>'
p221
sS'args'
p222
S"('SELECT * FROM usertables where username = %%', 7L)"
p223
sS'fn'
p224
S'<function execute>'
p225
sS'kwargs'
p226
g21
ssg74
I246
sg75
(dp227
I241
S''
sI242
S'def require_open_cursor(fn):'
p228
sI243
S'    def _fn(self, *args, **kwargs):'
p229
sI244
S'        if self.cursor == None:'
p230
sI245
S'            raise CursorClosedError()'
p231
sI246
S'        return fn(self, *args, **kwargs)'
p232
sI247
S'    return _fn'
p233
sI248
S''
sI249
S'##'
p234
sI250
S'# The class of object returned by the {@link #ConnectionWrapper.cursor cursor method}.'
p235
ssg87
S"(self=<gluon.contrib.pg8000.dbapi.CursorWrapper object>, *args=('SELECT * FROM usertables where username = %%', 7L), **kwargs={})"
p236
sg89
S'_fn'
p237
sa(dp238
g66
S'/Users/Abhinav/Documents/Hobbies & Stuff/Computer/Shivam/web2py/gluon/contrib/pg8000/dbapi.py'
p239
sg68
(dp240
S'self._execute'
p241
S'<bound method CursorWrapper._execute of <gluon.contrib.pg8000.dbapi.CursorWrapper object>>'
p242
sS'self'
p243
S'<gluon.contrib.pg8000.dbapi.CursorWrapper object>'
p244
sS'args'
p245
S'7L'
p246
sS'operation'
p247
S"'SELECT * FROM usertables where username = %%'"
p248
ssg74
I317
sg75
(dp249
I320
S'        new_query, new_args = convert_paramstyle(paramstyle, operation, args)'
p250
sI321
S'        try:'
p251
sI312
S'    @require_open_cursor'
p252
sI313
S'    def execute(self, operation, args=()):'
p253
sI314
S'        if not self._connection.in_transaction:'
p254
sI315
S'            self._connection.begin()'
p255
sI316
S'        self._override_rowcount = None'
p256
sI317
S'        self._execute(operation, args)'
p257
sI318
S''
sI319
S'    def _execute(self, operation, args=()):'
p258
ssg87
S"(self=<gluon.contrib.pg8000.dbapi.CursorWrapper object>, operation='SELECT * FROM usertables where username = %%', args=7L)"
p259
sg89
g191
sa(dp260
g66
S'/Users/Abhinav/Documents/Hobbies & Stuff/Computer/Shivam/web2py/gluon/contrib/pg8000/dbapi.py'
p261
sg68
(dp262
S'new_args'
p263
S'()'
p264
sS'self.cursor'
p265
S'<gluon.contrib.pg8000.interface.Cursor object>'
p266
sS'self'
p267
S'<gluon.contrib.pg8000.dbapi.CursorWrapper object>'
p268
sS'new_query'
p269
S"'SELECT * FROM usertables where username = %'"
p270
sS'self.cursor.execute'
p271
S'<bound method Cursor.execute of <gluon.contrib.pg8000.interface.Cursor object>>'
p272
ssg74
I322
sg75
(dp273
I320
S'        new_query, new_args = convert_paramstyle(paramstyle, operation, args)'
p274
sI321
S'        try:'
p275
sI322
S'            self.cursor.execute(new_query, *new_args)'
p276
sI323
S'        except ConnectionClosedError:'
p277
sI324
S"            # can't rollback in this case"
p278
sI325
S'            raise'
p279
sI326
S'        except:'
p280
sI317
S'        self._execute(operation, args)'
p281
sI318
S''
sI319
S'    def _execute(self, operation, args=()):'
p282
ssg87
S"(self=<gluon.contrib.pg8000.dbapi.CursorWrapper object>, operation='SELECT * FROM usertables where username = %%', args=7L)"
p283
sg89
S'_execute'
p284
sa(dp285
g66
S'/Users/Abhinav/Documents/Hobbies & Stuff/Computer/Shivam/web2py/gluon/contrib/pg8000/interface.py'
p286
sg68
(dp287
S'x'
g110
sS'args'
p288
S'()'
p289
sS'builtintype'
p290
S"<type 'type'>"
p291
sS'self._stmt'
p292
S'<gluon.contrib.pg8000.interface.PreparedStatement object>'
p293
sS'self'
p294
S'<gluon.contrib.pg8000.interface.Cursor object>'
p295
sS'self.connection'
p296
S'<gluon.contrib.pg8000.interface.Connection object>'
p297
sS'global PreparedStatement'
p298
S"<class 'gluon.contrib.pg8000.interface.PreparedStatement'>"
p299
sS'statement_name'
p300
g110
sS'query'
p301
S"'SELECT * FROM usertables where username = %'"
p302
ssg74
I398
sg75
(dp303
I393
S'                # use PostgreSQL Simple Query Protocol'
p304
sI394
S'                ## print "SimpleQuery:", query'
p305
sI395
S'                self._stmt = SimpleStatement(self.connection, query)'
p306
sI396
S'            else:'
p307
sI397
S'                # use PostgreSQL Extended Query Protocol'
p308
sI398
S'                self._stmt = PreparedStatement(self.connection, query, statement_name="", *[{"type": type(x), "value": x} for x in args])'
p309
sI399
S'            self._stmt.execute(*args, **kwargs)'
p310
sI400
S'        finally:'
p311
sI401
S'            self.connection._unnamed_prepared_statement_lock.release()'
p312
sI402
S''
ssg87
S"(self=<gluon.contrib.pg8000.interface.Cursor object>, query='SELECT * FROM usertables where username = %', *args=(), **kwargs={})"
p313
sg89
g191
sa(dp314
g66
S'/Users/Abhinav/Documents/Hobbies & Stuff/Computer/Shivam/web2py/gluon/contrib/pg8000/interface.py'
p315
sg68
(dp316
S'self.c'
p317
S'<gluon.contrib.pg8000.protocol.Connection object>'
p318
sS'self'
p319
S'<gluon.contrib.pg8000.interface.PreparedStatement object>'
p320
sS'self.c.parse'
p321
S'<bound method Connection._fn of <gluon.contrib.pg8000.protocol.Connection object>>'
p322
sS'self._statement_name'
p323
S"''"
p324
sS'self._parse_row_desc'
p325
g110
sS'statement'
p326
S"'SELECT * FROM usertables where username = %'"
p327
sS'types'
p328
S'()'
p329
ssg74
I138
sg75
(dp330
I133
S'        self._statement_name = kwargs.get("statement_name", "pg8000_statement_%s" % self._statement_number)'
p331
sI134
S'        self._row_desc = None'
p332
sI135
S'        self._cached_rows = []'
p333
sI136
S'        self._ongoing_row_count = 0'
p334
sI137
S'        self._command_complete = True'
p335
sI138
S'        self._parse_row_desc = self.c.parse(self._statement_name, statement, types)'
p336
sI139
S'        self._lock = threading.RLock()'
p337
sI140
S''
sI141
S'    def close(self):'
p338
sI142
S'        if self._statement_name != "": # don\'t close unnamed statement'
p339
ssg87
S"(self=<gluon.contrib.pg8000.interface.PreparedStatement object>, connection=<gluon.contrib.pg8000.interface.Connection object>, statement='SELECT * FROM usertables where username = %', *types=(), **kwargs={'statement_name': ''})"
p340
sg89
g26
sa(dp341
g66
S'/Users/Abhinav/Documents/Hobbies & Stuff/Computer/Shivam/web2py/gluon/contrib/pg8000/protocol.py'
p342
sg68
(dp343
S'self'
p344
S'<gluon.contrib.pg8000.protocol.Connection object>'
p345
sS'args'
p346
S"('', 'SELECT * FROM usertables where username = %', ())"
p347
sS'fn'
p348
S'<function parse>'
p349
sS'kwargs'
p350
g21
ssg74
I943
sg75
(dp351
I938
S''
sI939
S'def sync_on_error(fn):'
p352
sI940
S'    def _fn(self, *args, **kwargs):'
p353
sI941
S'        try:'
p354
sI942
S'            self._sock_lock.acquire()'
p355
sI943
S'            return fn(self, *args, **kwargs)'
p356
sI944
S'        except:'
p357
sI945
S'            self._sync()'
p358
sI946
S'            raise'
p359
sI947
S'        finally:'
p360
ssg87
S"(self=<gluon.contrib.pg8000.protocol.Connection object>, *args=('', 'SELECT * FROM usertables where username = %', ()), **kwargs={})"
p361
sg89
g237
sa(dp362
g66
S'/Users/Abhinav/Documents/Hobbies & Stuff/Computer/Shivam/web2py/gluon/contrib/pg8000/protocol.py'
p363
sg68
(dp364
S'reader.handle_messages'
p365
S'<bound method MessageReader.handle_messages of <gluon.contrib.pg8000.protocol.MessageReader object>>'
p366
sS'reader'
p367
S'<gluon.contrib.pg8000.protocol.MessageReader object>'
p368
ssg74
I1104
sg75
(dp369
I1099
S'        reader.add_message(NoData, lambda msg: (None, param_fc))'
p370
sI1100
S''
sI1101
S'        # Common row description response'
p371
sI1102
S'        reader.add_message(RowDescription, lambda msg: (msg, param_fc))'
p372
sI1103
S''
sI1104
S'        return reader.handle_messages()'
p373
sI1105
S''
sI1106
S'    @sync_on_error'
p374
sI1107
S'    def bind(self, portal, statement, params, parse_data, copy_stream):'
p375
sI1108
S'        self.verifyState("ready")'
p376
ssg87
S"(self=<gluon.contrib.pg8000.protocol.Connection object>, statement='', qs='SELECT * FROM usertables where username = %', param_types=[])"
p377
sg89
S'parse'
p378
sa(dp379
g66
S'/Users/Abhinav/Documents/Hobbies & Stuff/Computer/Shivam/web2py/gluon/contrib/pg8000/protocol.py'
p380
sg68
(dp381
S'exc'
p382
S'ProgrammingError(\'ERROR\', \'42601\', \'syntax error at or near "%"\')'
p383
ssg74
I929
sg75
(dp384
I928
S'                if not self.delay_raising_exception:'
p385
sI929
S'                    raise exc'
p386
sI930
S'            elif isinstance(msg, NoticeResponse):'
p387
sI931
S'                self._conn.handleNoticeResponse(msg)'
p388
sI932
S'            elif isinstance(msg, ParameterStatus):'
p389
sI933
S'                self._conn.handleParameterStatus(msg)'
p390
sI924
S'            if msg_handled:'
p391
sI925
S'                continue'
p392
sI926
S'            elif isinstance(msg, ErrorResponse):'
p393
sI927
S'                exc = msg.createException()'
p394
ssg87
S'(self=<gluon.contrib.pg8000.protocol.MessageReader object>)'
p395
sg89
S'handle_messages'
p396
sasS'pyver'
p397
S'Python 2.7.5: /usr/bin/python (prefix: /System/Library/Frameworks/Python.framework/Versions/2.7)'
p398
sS'session'
p399
g61
(S's\x1a\x0b\x00\x00<div><table><tr><td style="font-weight:bold;vertical-align:top;">auth</td><td style="vertical-align:top;">:</td><td><div><table><tr><td style="font-weight:bold;vertical-align:top;">expiration</td><td style="vertical-align:top;">:</td><td><div>3600</div></td></tr><tr><td style="font-weight:bold;vertical-align:top;">hmac_key</td><td style="vertical-align:top;">:</td><td><div>9857a855-9ac3-4e6d-9768-f24daa15f90d</div></td></tr><tr><td style="font-weight:bold;vertical-align:top;">last_visit</td><td style="vertical-align:top;">:</td><td><div>datetime.datetime(2014, 6, 16, 14, 10, 52, 257932)</div></td></tr><tr><td style="font-weight:bold;vertical-align:top;">remember</td><td style="vertical-align:top;">:</td><td><div>False</div></td></tr><tr><td style="font-weight:bold;vertical-align:top;">user</td><td style="vertical-align:top;">:</td><td><div><table><tr><td style="font-weight:bold;vertical-align:top;">EntryNo</td><td style="vertical-align:top;">:</td><td><div>2012CS50279</div></td></tr><tr><td style="font-weight:bold;vertical-align:top;">email</td><td style="vertical-align:top;">:</td><td><div>cs1120252@iitd.ac.in</div></td></tr><tr><td style="font-weight:bold;vertical-align:top;">first_name</td><td style="vertical-align:top;">:</td><td><div>Anshul</div></td></tr><tr><td style="font-weight:bold;vertical-align:top;">id</td><td style="vertical-align:top;">:</td><td><div>7L</div></td></tr><tr><td style="font-weight:bold;vertical-align:top;">last_name</td><td style="vertical-align:top;">:</td><td><div>Bawa</div></td></tr><tr><td style="font-weight:bold;vertical-align:top;">registration_id</td><td style="vertical-align:top;">:</td><td><div></div></td></tr><tr><td style="font-weight:bold;vertical-align:top;">registration_key</td><td style="vertical-align:top;">:</td><td><div></div></td></tr><tr><td style="font-weight:bold;vertical-align:top;">reset_password_key</td><td style="vertical-align:top;">:</td><td><div></div></td></tr><tr><td style="font-weight:bold;vertical-align:top;">username</td><td style="vertical-align:top;">:</td><td><div>abawa</div></td></tr></table></div></td></tr><tr><td style="font-weight:bold;vertical-align:top;">user_groups</td><td style="vertical-align:top;">:</td><td><div><table><tr><td style="font-weight:bold;vertical-align:top;">4</td><td style="vertical-align:top;">:</td><td><div>user_7</div></td></tr></table></div></td></tr></table></div></td></tr><tr><td style="font-weight:bold;vertical-align:top;">flash</td><td style="vertical-align:top;">:</td><td><div>None</div></td></tr><tr><td style="font-weight:bold;vertical-align:top;">last_orderby</td><td style="vertical-align:top;">:</td><td><div>None</div></td></tr><tr><td style="font-weight:bold;vertical-align:top;">last_query</td><td style="vertical-align:top;">:</td><td><div>db.usertables.id&gt;0</div></td></tr></table></div>'
tRp400
sS'etype'
p401
S"<class 'gluon.contrib.pg8000.errors.ProgrammingError'>"
p402
sS'date'
p403
S'Mon Jun 16 14:15:10 2014'
p404
sS'response'
p405
g61
(S's\xe11\x00\x00<div><table><tr><td style="font-weight:bold;vertical-align:top;">body</td><td style="vertical-align:top;">:</td><td><div>&lt;cStringIO.StringO object at 0x11034a0a0&gt;</div></td></tr><tr><td style="font-weight:bold;vertical-align:top;">cookies</td><td style="vertical-align:top;">:</td><td><div><table><tr><td style="font-weight:bold;vertical-align:top;">session_id_schedule</td><td style="vertical-align:top;">:</td><td><div>127.0.0.1-c579022b-6d9b-472d-8d85-7b9db3318d64<table><tr><td style="font-weight:bold;vertical-align:top;">comment</td><td style="vertical-align:top;">:</td><td><div></div></td></tr><tr><td style="font-weight:bold;vertical-align:top;">domain</td><td style="vertical-align:top;">:</td><td><div></div></td></tr><tr><td style="font-weight:bold;vertical-align:top;">expires</td><td style="vertical-align:top;">:</td><td><div></div></td></tr><tr><td style="font-weight:bold;vertical-align:top;">httponly</td><td style="vertical-align:top;">:</td><td><div></div></td></tr><tr><td style="font-weight:bold;vertical-align:top;">max-age</td><td style="vertical-align:top;">:</td><td><div></div></td></tr><tr><td style="font-weight:bold;vertical-align:top;">path</td><td style="vertical-align:top;">:</td><td><div>/</div></td></tr><tr><td style="font-weight:bold;vertical-align:top;">secure</td><td style="vertical-align:top;">:</td><td><div></div></td></tr><tr><td style="font-weight:bold;vertical-align:top;">version</td><td style="vertical-align:top;">:</td><td><div></div></td></tr></table></div></td></tr></table></div></td></tr><tr><td style="font-weight:bold;vertical-align:top;">delimiters</td><td style="vertical-align:top;">:</td><td><div><table><tr><td><div>{{</div></td></tr><tr><td><div>}}</div></td></tr></table></div></td></tr><tr><td style="font-weight:bold;vertical-align:top;">files</td><td style="vertical-align:top;">:</td><td><div><table></table></div></td></tr><tr><td style="font-weight:bold;vertical-align:top;">flash</td><td style="vertical-align:top;">:</td><td><div></div></td></tr><tr><td style="font-weight:bold;vertical-align:top;">generic_patterns</td><td style="vertical-align:top;">:</td><td><div><table><tr><td><div>*</div></td></tr></table></div></td></tr><tr><td style="font-weight:bold;vertical-align:top;">google_analytics_id</td><td style="vertical-align:top;">:</td><td><div>None</div></td></tr><tr><td style="font-weight:bold;vertical-align:top;">headers</td><td style="vertical-align:top;">:</td><td><div><table><tr><td style="font-weight:bold;vertical-align:top;">X-Powered-By</td><td style="vertical-align:top;">:</td><td><div>web2py</div></td></tr></table></div></td></tr><tr><td style="font-weight:bold;vertical-align:top;">logo</td><td style="vertical-align:top;">:</td><td><div><a class="brand" href="http://www.web2py.com/"><b>web<span>2</span>py</b>&trade;&nbsp;</a></div></td></tr><tr><td style="font-weight:bold;vertical-align:top;">menu</td><td style="vertical-align:top;">:</td><td><div><table><tr><td><div><table><tr><td><div>Home</div></td></tr><tr><td><div>False</div></td></tr><tr><td><div>/Schedule/default/index</div></td></tr><tr><td><div><table></table></div></td></tr></table></div></td></tr><tr><td><div><table><tr><td><div><span class="highlighted">web2py</span></div></td></tr><tr><td><div>False</div></td></tr><tr><td><div>http://web2py.com</div></td></tr><tr><td><div><table><tr><td><div><table><tr><td><div>My Sites</div></td></tr><tr><td><div>False</div></td></tr><tr><td><div>/admin/default/site</div></td></tr></table></div></td></tr><tr><td><div><table><tr><td><div>This App</div></td></tr><tr><td><div>False</div></td></tr><tr><td><div>/admin/default/design/Schedule</div></td></tr><tr><td><div>[(&lt;lazyT &#x27;Controller&#x27;&gt;, False, &#x27;/admin/default/edit/Schedule/controllers/default.py&#x27;), (&lt;lazyT &#x27;View&#x27;&gt;, False, &#x27;/admin/default/edit/Schedule/views/default/mainpage.html&#x27;), (&lt;lazyT &#x27;Layout&#x27;&gt;, False, &#x27;/admin/default/edit/Schedule/views/layout.html&#x27;), (&lt;lazyT &#x27;Stylesheet&#x27;&gt;, False, &#x27;/admin/default/edit/Schedule/static/css/web2py.css&#x27;), (&lt;lazyT &#x27;DB Model&#x27;&gt;, False, &#x27;/admin/default/edit/Schedule/models/db.py&#x27;), (&lt;lazyT &#x27;Menu Model&#x27;&gt;, False, &#x27;/admin/default/edit/Schedule/models/menu.py&#x27;), (&lt;lazyT &#x27;Database&#x27;&gt;, False, &#x27;/Schedule/appadmin/index&#x27;), (&lt;lazyT &#x27;Errors&#x27;&gt;, False, &#x27;/admin/default/errors/Schedule&#x27;), (&lt;lazyT &#x27;About&#x27;&gt;, False, &#x27;/admin/default/about/Schedule&#x27;)]</div></td></tr></table></div></td></tr><tr><td><div><table><tr><td><div>web2py.com</div></td></tr><tr><td><div>False</div></td></tr><tr><td><div>http://www.web2py.com</div></td></tr><tr><td><div>[(&lt;lazyT &#x27;Download&#x27;&gt;, False, &#x27;http://www.web2py.com/examples/default/download&#x27;), (&lt;lazyT &#x27;Support&#x27;&gt;, False, &#x27;http://www.web2py.com/examples/default/support&#x27;), (&lt;lazyT &#x27;Demo&#x27;&gt;, False, &#x27;http://web2py.com/demo_admin&#x27;), (&lt;lazyT &#x27;Quick Examples&#x27;&gt;, False, &#x27;http://web2py.com/examples/default/examples&#x27;), (&lt;lazyT &#x27;FAQ&#x27;&gt;, False, &#x27;http://web2py.com/AlterEgo&#x27;), (&lt;lazyT &#x27;Videos&#x27;&gt;, False, &#x27;http://www.web2py.com/examples/default/videos/&#x27;), (&lt;lazyT &#x27;Free Applications&#x27;&gt;, False, &#x27;http://web2py.com/appliances&#x27;), (&lt;lazyT &#x27;Plugins&#x27;&gt;, False, &#x27;http://web2py.com/plugins&#x27;), (&lt;lazyT &#x27;Layouts&#x27;&gt;, False, &#x27;http://web2py.com/layouts&#x27;), (&lt;lazyT &#x27;Recipes&#x27;&gt;, False, &#x27;http://web2pyslices.com/&#x27;), (&lt;lazyT &#x27;Semantic&#x27;&gt;, False, &#x27;http://web2py.com/semantic&#x27;)]</div></td></tr></table></div></td></tr><tr><td><div><table><tr><td><div>Documentation</div></td></tr><tr><td><div>False</div></td></tr><tr><td><div>http://www.web2py.com/book</div></td></tr><tr><td><div>[(&lt;lazyT &#x27;Preface&#x27;&gt;, False, &#x27;http://www.web2py.com/book/default/chapter/00&#x27;), (&lt;lazyT &#x27;Introduction&#x27;&gt;, False, &#x27;http://www.web2py.com/book/default/chapter/01&#x27;), (&lt;lazyT &#x27;Python&#x27;&gt;, False, &#x27;http://www.web2py.com/book/default/chapter/02&#x27;), (&lt;lazyT &#x27;Overview&#x27;&gt;, False, &#x27;http://www.web2py.com/book/default/chapter/03&#x27;), (&lt;lazyT &#x27;The Core&#x27;&gt;, False, &#x27;http://www.web2py.com/book/default/chapter/04&#x27;), (&lt;lazyT &#x27;The Views&#x27;&gt;, False, &#x27;http://www.web2py.com/book/default/chapter/05&#x27;), (&lt;lazyT &#x27;Database&#x27;&gt;, False, &#x27;http://www.web2py.com/book/default/chapter/06&#x27;), (&lt;lazyT &#x27;Forms and Validators&#x27;&gt;, False, &#x27;http://www.web2py.com/book/default/chapter/07&#x27;), (&lt;lazyT &#x27;Email and SMS&#x27;&gt;, False, &#x27;http://www.web2py.com/book/default/chapter/08&#x27;), (&lt;lazyT &#x27;Access Control&#x27;&gt;, False, &#x27;http://www.web2py.com/book/default/chapter/09&#x27;), (&lt;lazyT &#x27;Services&#x27;&gt;, False, &#x27;http://www.web2py.com/book/default/chapter/10&#x27;), (&lt;lazyT &#x27;Ajax Recipes&#x27;&gt;, False, &#x27;http://www.web2py.com/book/default/chapter/11&#x27;), (&lt;lazyT &#x27;Components and Plugins&#x27;&gt;, False, &#x27;http://www.web2py.com/book/default/chapter/12&#x27;), (&lt;lazyT &#x27;Deployment Recipes&#x27;&gt;, False, &#x27;http://www.web2py.com/book/default/chapter/13&#x27;), (&lt;lazyT &#x27;Other Recipes&#x27;&gt;, False, &#x27;http://www.web2py.com/book/default/chapter/14&#x27;), (&lt;lazyT &#x27;Buy this book&#x27;&gt;, False, &#x27;http://stores.lulu.com/web2py&#x27;)]</div></td></tr></table></div></td></tr><tr><td><div><table><tr><td><div>Community</div></td></tr><tr><td><div>False</div></td></tr><tr><td><div>None</div></td></tr><tr><td><div>[(&lt;lazyT &#x27;Groups&#x27;&gt;, False, &#x27;http://www.web2py.com/examples/default/usergroups&#x27;), (&lt;lazyT &#x27;Twitter&#x27;&gt;, False, &#x27;http://twitter.com/web2py&#x27;), (&lt;lazyT &#x27;Live Chat&#x27;&gt;, False, &#x27;http://webchat.freenode.net/?channels=web2py&#x27;)]</div></td></tr></table></div></td></tr><tr><td><div><table><tr><td><div>Plugins</div></td></tr><tr><td><div>False</div></td></tr><tr><td><div>None</div></td></tr><tr><td><div>[(&#x27;plugin_wiki&#x27;, False, &#x27;http://web2py.com/examples/default/download&#x27;), (&lt;lazyT &#x27;Other Plugins&#x27;&gt;, False, &#x27;http://web2py.com/plugins&#x27;), (&lt;lazyT &#x27;Layout Plugins&#x27;&gt;, False, &#x27;http://web2py.com/layouts&#x27;)]</div></td></tr></table></div></td></tr></table></div></td></tr></table></div></td></tr></table></div></td></tr><tr><td style="font-weight:bold;vertical-align:top;">meta</td><td style="vertical-align:top;">:</td><td><div><table><tr><td style="font-weight:bold;vertical-align:top;">author</td><td style="vertical-align:top;">:</td><td><div>Your Name &lt;you@example.com&gt;</div></td></tr><tr><td style="font-weight:bold;vertical-align:top;">generator</td><td style="vertical-align:top;">:</td><td><div>Web2py Web Framework</div></td></tr><tr><td style="font-weight:bold;vertical-align:top;">keywords</td><td style="vertical-align:top;">:</td><td><div>web2py, python, framework</div></td></tr></table></div></td></tr><tr><td style="font-weight:bold;vertical-align:top;">models_to_run</td><td style="vertical-align:top;">:</td><td><div><table><tr><td><div>^\\w+\\.py$</div></td></tr><tr><td><div>^default/\\w+\\.py$</div></td></tr><tr><td><div>^default/mainpage/\\w+\\.py$</div></td></tr></table></div></td></tr><tr><td style="font-weight:bold;vertical-align:top;">postprocessing</td><td style="vertical-align:top;">:</td><td><div><table></table></div></td></tr><tr><td style="font-weight:bold;vertical-align:top;">session_client</td><td style="vertical-align:top;">:</td><td><div>127.0.0.1</div></td></tr><tr><td style="font-weight:bold;vertical-align:top;">session_cookie_compression_level</td><td style="vertical-align:top;">:</td><td><div>None</div></td></tr><tr><td style="font-weight:bold;vertical-align:top;">session_cookie_expires</td><td style="vertical-align:top;">:</td><td><div>None</div></td></tr><tr><td style="font-weight:bold;vertical-align:top;">session_cookie_key</td><td style="vertical-align:top;">:</td><td><div>None</div></td></tr><tr><td style="font-weight:bold;vertical-align:top;">session_data_name</td><td style="vertical-align:top;">:</td><td><div>session_data_schedule</div></td></tr><tr><td style="font-weight:bold;vertical-align:top;">session_file</td><td style="vertical-align:top;">:</td><td><div>&lt;open file &#x27;/Users/Abhinav/Documents/Hobbies &amp; Stuff/Computer/Shivam/web2py/applications/Schedule/sessions/127.0.0.1-c579022b-6d9b-472d-8d85-7b9db3318d64&#x27;, mode &#x27;rb+&#x27; at 0x10aaf5150&gt;</div></td></tr><tr><td style="font-weight:bold;vertical-align:top;">session_filename</td><td style="vertical-align:top;">:</td><td><div>/Users/Abhinav/Documents/Hobbies &amp; Stuff/Computer/Shivam/web2py/applications/Schedule/sessions/127.0.0.1-c579022b-6d9b-472d-8d85-7b9db3318d64</div></td></tr><tr><td style="font-weight:bold;vertical-align:top;">session_hash</td><td style="vertical-align:top;">:</td><td><div>825c008c238acbd767460d29bdcb4f76</div></td></tr><tr><td style="font-weight:bold;vertical-align:top;">session_id</td><td style="vertical-align:top;">:</td><td><div>127.0.0.1-c579022b-6d9b-472d-8d85-7b9db3318d64</div></td></tr><tr><td style="font-weight:bold;vertical-align:top;">session_id_name</td><td style="vertical-align:top;">:</td><td><div>session_id_schedule</div></td></tr><tr><td style="font-weight:bold;vertical-align:top;">session_locked</td><td style="vertical-align:top;">:</td><td><div>True</div></td></tr><tr><td style="font-weight:bold;vertical-align:top;">session_masterapp</td><td style="vertical-align:top;">:</td><td><div>Schedule</div></td></tr><tr><td style="font-weight:bold;vertical-align:top;">session_new</td><td style="vertical-align:top;">:</td><td><div>False</div></td></tr><tr><td style="font-weight:bold;vertical-align:top;">session_storage_type</td><td style="vertical-align:top;">:</td><td><div>file</div></td></tr><tr><td style="font-weight:bold;vertical-align:top;">status</td><td style="vertical-align:top;">:</td><td><div>200</div></td></tr><tr><td style="font-weight:bold;vertical-align:top;">subtitle</td><td style="vertical-align:top;">:</td><td><div></div></td></tr><tr><td style="font-weight:bold;vertical-align:top;">title</td><td style="vertical-align:top;">:</td><td><div>Schedule</div></td></tr><tr><td style="font-weight:bold;vertical-align:top;">view</td><td style="vertical-align:top;">:</td><td><div>default/mainpage.html</div></td></tr></table></div>'
tRp406
sS'locals'
p407
(dp408
S'exc'
p409
S'ProgrammingError(\'ERROR\', \'42601\', \'syntax error at or near "%"\')'
p410
sS'msg_class'
p411
S"<class 'gluon.contrib.pg8000.protocol.RowDescription'>"
p412
sS'self'
p413
S'<gluon.contrib.pg8000.protocol.MessageReader object>'
p414
sg46
S'()'
p415
sS'handler'
p416
S'<function <lambda>>'
p417
sS'kwargs'
p418
g21
sS'msg'
p419
S'<ErrorResponse ERROR 42601 \'syntax error at or near "%"\'>'
p420
sS'msg_handled'
p421
S'False'
p422
sssS'traceback'
p423
S'Traceback (most recent call last):\n  File "/Users/Abhinav/Documents/Hobbies & Stuff/Computer/Shivam/web2py/gluon/restricted.py", line 220, in restricted\n    exec ccode in environment\n  File "/Users/Abhinav/Documents/Hobbies & Stuff/Computer/Shivam/web2py/applications/Schedule/controllers/default.py", line 84, in <module>\n  File "/Users/Abhinav/Documents/Hobbies & Stuff/Computer/Shivam/web2py/gluon/globals.py", line 385, in <lambda>\n    self._caller = lambda f: f()\n  File "/Users/Abhinav/Documents/Hobbies & Stuff/Computer/Shivam/web2py/applications/Schedule/controllers/default.py", line 81, in mainpage\n    record2 = db.executesql("SELECT * FROM usertables where username = %%",auth.user.id)\n  File "/Users/Abhinav/Documents/Hobbies & Stuff/Computer/Shivam/web2py/gluon/dal.py", line 8431, in executesql\n    adapter.execute(query, placeholders)\n  File "/Users/Abhinav/Documents/Hobbies & Stuff/Computer/Shivam/web2py/gluon/dal.py", line 1969, in execute\n    return self.log_execute(*a, **b)\n  File "/Users/Abhinav/Documents/Hobbies & Stuff/Computer/Shivam/web2py/gluon/dal.py", line 1963, in log_execute\n    ret = self.cursor.execute(command, *a[1:], **b)\n  File "/Users/Abhinav/Documents/Hobbies & Stuff/Computer/Shivam/web2py/gluon/contrib/pg8000/dbapi.py", line 246, in _fn\n    return fn(self, *args, **kwargs)\n  File "/Users/Abhinav/Documents/Hobbies & Stuff/Computer/Shivam/web2py/gluon/contrib/pg8000/dbapi.py", line 317, in execute\n    self._execute(operation, args)\n  File "/Users/Abhinav/Documents/Hobbies & Stuff/Computer/Shivam/web2py/gluon/contrib/pg8000/dbapi.py", line 322, in _execute\n    self.cursor.execute(new_query, *new_args)\n  File "/Users/Abhinav/Documents/Hobbies & Stuff/Computer/Shivam/web2py/gluon/contrib/pg8000/interface.py", line 398, in execute\n    self._stmt = PreparedStatement(self.connection, query, statement_name="", *[{"type": type(x), "value": x} for x in args])\n  File "/Users/Abhinav/Documents/Hobbies & Stuff/Computer/Shivam/web2py/gluon/contrib/pg8000/interface.py", line 138, in __init__\n    self._parse_row_desc = self.c.parse(self._statement_name, statement, types)\n  File "/Users/Abhinav/Documents/Hobbies & Stuff/Computer/Shivam/web2py/gluon/contrib/pg8000/protocol.py", line 943, in _fn\n    return fn(self, *args, **kwargs)\n  File "/Users/Abhinav/Documents/Hobbies & Stuff/Computer/Shivam/web2py/gluon/contrib/pg8000/protocol.py", line 1104, in parse\n    return reader.handle_messages()\n  File "/Users/Abhinav/Documents/Hobbies & Stuff/Computer/Shivam/web2py/gluon/contrib/pg8000/protocol.py", line 929, in handle_messages\n    raise exc\nProgrammingError: (\'ERROR\', \'42601\', \'syntax error at or near "%"\')\n'
p424
s.