(dp1
S'output'
p2
S"<class 'gluon.contrib.pg8000.errors.ProgrammingError'> ('ERROR', '42883', 'operator does not exist: integer == integer')"
p3
sS'layer'
p4
S'/Users/Abhinav/Documents/Hobbies & Stuff/Computer/Shivam/web2py/applications/Schedule/controllers/default.py'
p5
sS'code'
p6
S'# -*- coding: utf-8 -*-\n# this file is released under public domain and you can use without limitations\n\n#########################################################################\n## This is a sample controller\n## - index is the default action of any application\n## - user is required for authentication and authorization\n## - download is for downloading files uploaded in the db (does streaming)\n## - call exposes all registered services (none by default)\n#########################################################################\n\n\ndef index():\n    """\n    example action using the internationalization operator T and flash\n    rendered by views/default/index.html or views/generic.html\n\n    if you need a simple wiki simply replace the two lines below with:\n    return auth.wiki()\n    """\n    form = auth.login()\n    response.flash = T("Welcome to Scheduler!")\n    return dict(message=form)\n\n\ndef user():\n    """\n    exposes:\n    http://..../[app]/default/user/login\n    http://..../[app]/default/user/logout\n    http://..../[app]/default/user/register\n    http://..../[app]/default/user/profile\n    http://..../[app]/default/user/retrieve_password\n    http://..../[app]/default/user/change_password\n    http://..../[app]/default/user/manage_users (requires membership in\n    use @auth.requires_login()\n        @auth.requires_membership(\'group name\')\n        @auth.requires_permission(\'read\',\'table name\',record_id)\n    to decorate functions that need access control\n    """\n    return dict(form=auth())\n\n@cache.action()\ndef download():\n    """\n    allows downloading of uploaded files\n    http://..../[app]/default/download/[filename]\n    """\n    return response.download(request, db)\n\n\ndef call():\n    """\n    exposes services. for example:\n    http://..../[app]/default/call/jsonrpc\n    decorate with @services.jsonrpc the functions to expose\n    supports xml, json, xmlrpc, jsonrpc, amfrpc, rss, csv\n    """\n    return service()\n\n\n@auth.requires_signature()\ndef data():\n    """\n    http://..../[app]/default/data/tables\n    http://..../[app]/default/data/create/[table]\n    http://..../[app]/default/data/read/[table]/[id]\n    http://..../[app]/default/data/update/[table]/[id]\n    http://..../[app]/default/data/delete/[table]/[id]\n    http://..../[app]/default/data/select/[table]\n    http://..../[app]/default/data/search/[table]\n    but URLs must be signed, i.e. linked with\n      A(\'table\',_href=URL(\'data/tables\',user_signature=True))\n    or with the signed load operator\n      LOAD(\'default\',\'data.load\',args=\'tables\',ajax=True,user_signature=True)\n    """\n    return dict(form=crud())\n\ndef mainpage():\n    record1 = auth.user.first_name+" "+auth.user.last_name+" "+str(auth.user.id)\n    record2 = db.executesql(\'SELECT tNo FROM usertables WHERE %s;\' %str("username==7"))\n\n    record3 = db.executesql("SELECT courseList,noteList FROM timetables WHERE (id = 3) or (id = 4)")\n    a = []\n    b = []\n    for i in range (0,len(record3)):\n        a.extend(record3[i][0].split("$$"))\n        b.extend(record3[i][1].split("$$"))\n    return dict(message0=T("Hello You have successfully logged in!"),message1=record1,message2=record2,message3=record3,mes1=a,mes2=b)\n\nresponse._vars=response._caller(mainpage)\n'
p7
sS'snapshot'
p8
(dp9
S'exception'
p10
(dp11
S'__module__'
p12
S"'gluon.contrib.pg8000.errors'"
p13
sS'__getslice__'
p14
S"<method-wrapper '__getslice__' of ProgrammingError object>"
p15
sS'__str__'
p16
S"<method-wrapper '__str__' of ProgrammingError object>"
p17
sS'__reduce__'
p18
S'<built-in method __reduce__ of ProgrammingError object>'
p19
sS'__dict__'
p20
S'{}'
p21
sS'__sizeof__'
p22
S'<built-in method __sizeof__ of ProgrammingError object>'
p23
sS'__weakref__'
p24
S'None'
p25
sS'__init__'
p26
S"<method-wrapper '__init__' of ProgrammingError object>"
p27
sS'__setattr__'
p28
S"<method-wrapper '__setattr__' of ProgrammingError object>"
p29
sS'__reduce_ex__'
p30
S'<built-in method __reduce_ex__ of ProgrammingError object>'
p31
sS'__new__'
p32
S'<built-in method __new__ of type object>'
p33
sS'__format__'
p34
S'<built-in method __format__ of ProgrammingError object>'
p35
sS'__class__'
p36
S"<class 'gluon.contrib.pg8000.errors.ProgrammingError'>"
p37
sS'__doc__'
p38
S'None'
p39
sS'__getitem__'
p40
S"<method-wrapper '__getitem__' of ProgrammingError object>"
p41
sS'__setstate__'
p42
S'<built-in method __setstate__ of ProgrammingError object>'
p43
sS'__getattribute__'
p44
S"<method-wrapper '__getattribute__' of ProgrammingError object>"
p45
sS'args'
p46
S"('ERROR', '42883', 'operator does not exist: integer == integer')"
p47
sS'__subclasshook__'
p48
S'<built-in method __subclasshook__ of type object>'
p49
sS'__unicode__'
p50
S'<built-in method __unicode__ of ProgrammingError object>'
p51
sS'__delattr__'
p52
S"<method-wrapper '__delattr__' of ProgrammingError object>"
p53
sS'__repr__'
p54
S"<method-wrapper '__repr__' of ProgrammingError object>"
p55
sS'__hash__'
p56
S"<method-wrapper '__hash__' of ProgrammingError object>"
p57
ssS'evalue'
p58
S"('ERROR', '42883', 'operator does not exist: integer == integer')"
p59
sS'request'
p60
cgluon.html
XML_unpickle
p61
(S'sA]\x00\x00<div><table><tr><td style="font-weight:bold;vertical-align:top;">ajax</td><td style="vertical-align:top;">:</td><td><div>False</div></td></tr><tr><td style="font-weight:bold;vertical-align:top;">application</td><td style="vertical-align:top;">:</td><td><div>Schedule</div></td></tr><tr><td style="font-weight:bold;vertical-align:top;">args</td><td style="vertical-align:top;">:</td><td><div><table></table></div></td></tr><tr><td style="font-weight:bold;vertical-align:top;">cid</td><td style="vertical-align:top;">:</td><td><div>None</div></td></tr><tr><td style="font-weight:bold;vertical-align:top;">client</td><td style="vertical-align:top;">:</td><td><div>127.0.0.1</div></td></tr><tr><td style="font-weight:bold;vertical-align:top;">controller</td><td style="vertical-align:top;">:</td><td><div>default</div></td></tr><tr><td style="font-weight:bold;vertical-align:top;">cookies</td><td style="vertical-align:top;">:</td><td><div><table><tr><td style="font-weight:bold;vertical-align:top;">session_id_admin</td><td style="vertical-align:top;">:</td><td><div>127.0.0.1-79ea93ae-6946-43f8-87ba-fec795a94ea0<table><tr><td style="font-weight:bold;vertical-align:top;">comment</td><td style="vertical-align:top;">:</td><td><div></div></td></tr><tr><td style="font-weight:bold;vertical-align:top;">domain</td><td style="vertical-align:top;">:</td><td><div></div></td></tr><tr><td style="font-weight:bold;vertical-align:top;">expires</td><td style="vertical-align:top;">:</td><td><div></div></td></tr><tr><td style="font-weight:bold;vertical-align:top;">httponly</td><td style="vertical-align:top;">:</td><td><div></div></td></tr><tr><td style="font-weight:bold;vertical-align:top;">max-age</td><td style="vertical-align:top;">:</td><td><div></div></td></tr><tr><td style="font-weight:bold;vertical-align:top;">path</td><td style="vertical-align:top;">:</td><td><div></div></td></tr><tr><td style="font-weight:bold;vertical-align:top;">secure</td><td style="vertical-align:top;">:</td><td><div></div></td></tr><tr><td style="font-weight:bold;vertical-align:top;">version</td><td style="vertical-align:top;">:</td><td><div></div></td></tr></table></div></td></tr><tr><td style="font-weight:bold;vertical-align:top;">session_id_schedule</td><td style="vertical-align:top;">:</td><td><div>127.0.0.1-c579022b-6d9b-472d-8d85-7b9db3318d64<table><tr><td style="font-weight:bold;vertical-align:top;">comment</td><td style="vertical-align:top;">:</td><td><div></div></td></tr><tr><td style="font-weight:bold;vertical-align:top;">domain</td><td style="vertical-align:top;">:</td><td><div></div></td></tr><tr><td style="font-weight:bold;vertical-align:top;">expires</td><td style="vertical-align:top;">:</td><td><div></div></td></tr><tr><td style="font-weight:bold;vertical-align:top;">httponly</td><td style="vertical-align:top;">:</td><td><div></div></td></tr><tr><td style="font-weight:bold;vertical-align:top;">max-age</td><td style="vertical-align:top;">:</td><td><div></div></td></tr><tr><td style="font-weight:bold;vertical-align:top;">path</td><td style="vertical-align:top;">:</td><td><div></div></td></tr><tr><td style="font-weight:bold;vertical-align:top;">secure</td><td style="vertical-align:top;">:</td><td><div></div></td></tr><tr><td style="font-weight:bold;vertical-align:top;">version</td><td style="vertical-align:top;">:</td><td><div></div></td></tr></table></div></td></tr><tr><td style="font-weight:bold;vertical-align:top;">session_id_welcome</td><td style="vertical-align:top;">:</td><td><div>127.0.0.1-eeb5dd77-fc31-4489-a23d-970613dafa77<table><tr><td style="font-weight:bold;vertical-align:top;">comment</td><td style="vertical-align:top;">:</td><td><div></div></td></tr><tr><td style="font-weight:bold;vertical-align:top;">domain</td><td style="vertical-align:top;">:</td><td><div></div></td></tr><tr><td style="font-weight:bold;vertical-align:top;">expires</td><td style="vertical-align:top;">:</td><td><div></div></td></tr><tr><td style="font-weight:bold;vertical-align:top;">httponly</td><td style="vertical-align:top;">:</td><td><div></div></td></tr><tr><td style="font-weight:bold;vertical-align:top;">max-age</td><td style="vertical-align:top;">:</td><td><div></div></td></tr><tr><td style="font-weight:bold;vertical-align:top;">path</td><td style="vertical-align:top;">:</td><td><div></div></td></tr><tr><td style="font-weight:bold;vertical-align:top;">secure</td><td style="vertical-align:top;">:</td><td><div></div></td></tr><tr><td style="font-weight:bold;vertical-align:top;">version</td><td style="vertical-align:top;">:</td><td><div></div></td></tr></table></div></td></tr></table></div></td></tr><tr><td style="font-weight:bold;vertical-align:top;">env</td><td style="vertical-align:top;">:</td><td><div><table><tr><td style="font-weight:bold;vertical-align:top;">HTTP_ACCEPT</td><td style="vertical-align:top;">:</td><td><div>text/html,application/xhtml+xml,application/xml;q=0.9,*/*;q=0.8</div></td></tr><tr><td style="font-weight:bold;vertical-align:top;">HTTP_ACCEPT_ENCODING</td><td style="vertical-align:top;">:</td><td><div>gzip, deflate</div></td></tr><tr><td style="font-weight:bold;vertical-align:top;">HTTP_ACCEPT_LANGUAGE</td><td style="vertical-align:top;">:</td><td><div>en-us</div></td></tr><tr><td style="font-weight:bold;vertical-align:top;">HTTP_CACHE_CONTROL</td><td style="vertical-align:top;">:</td><td><div>max-age=0</div></td></tr><tr><td style="font-weight:bold;vertical-align:top;">HTTP_CONNECTION</td><td style="vertical-align:top;">:</td><td><div>keep-alive</div></td></tr><tr><td style="font-weight:bold;vertical-align:top;">HTTP_COOKIE</td><td style="vertical-align:top;">:</td><td><div>session_id_admin=127.0.0.1-79ea93ae-6946-43f8-87ba-fec795a94ea0; session_id_schedule=127.0.0.1-c579022b-6d9b-472d-8d85-7b9db3318d64; session_id_welcome=127.0.0.1-eeb5dd77-fc31-4489-a23d-970613dafa77</div></td></tr><tr><td style="font-weight:bold;vertical-align:top;">HTTP_HOST</td><td style="vertical-align:top;">:</td><td><div>127.0.0.1:8000</div></td></tr><tr><td style="font-weight:bold;vertical-align:top;">HTTP_USER_AGENT</td><td style="vertical-align:top;">:</td><td><div>Mozilla/5.0 (Macintosh; Intel Mac OS X 10_9) AppleWebKit/537.71 (KHTML, like Gecko) Version/7.0 Safari/537.71</div></td></tr><tr><td style="font-weight:bold;vertical-align:top;">PATH_INFO</td><td style="vertical-align:top;">:</td><td><div>/Schedule/default/mainpage.html</div></td></tr><tr><td style="font-weight:bold;vertical-align:top;">QUERY_STRING</td><td style="vertical-align:top;">:</td><td><div></div></td></tr><tr><td style="font-weight:bold;vertical-align:top;">REMOTE_ADDR</td><td style="vertical-align:top;">:</td><td><div>127.0.0.1</div></td></tr><tr><td style="font-weight:bold;vertical-align:top;">REMOTE_PORT</td><td style="vertical-align:top;">:</td><td><div>57011</div></td></tr><tr><td style="font-weight:bold;vertical-align:top;">REQUEST_METHOD</td><td style="vertical-align:top;">:</td><td><div>GET</div></td></tr><tr><td style="font-weight:bold;vertical-align:top;">SCRIPT_NAME</td><td style="vertical-align:top;">:</td><td><div></div></td></tr><tr><td style="font-weight:bold;vertical-align:top;">SERVER_NAME</td><td style="vertical-align:top;">:</td><td><div>Abhinavs-MacBook-Pro.local</div></td></tr><tr><td style="font-weight:bold;vertical-align:top;">SERVER_PORT</td><td style="vertical-align:top;">:</td><td><div>8000</div></td></tr><tr><td style="font-weight:bold;vertical-align:top;">SERVER_PROTOCOL</td><td style="vertical-align:top;">:</td><td><div>HTTP/1.1</div></td></tr><tr><td style="font-weight:bold;vertical-align:top;">SERVER_SOFTWARE</td><td style="vertical-align:top;">:</td><td><div>Rocket 1.2.6</div></td></tr><tr><td style="font-weight:bold;vertical-align:top;">app_folders</td><td style="vertical-align:top;">:</td><td><div>set([&#x27;/Users/Abhinav/Documents/Hobbies &amp; Stuff/Computer/Shivam/web2py/applications/Schedule/&#x27;, &#x27;/Users/Abhinav/Documents/Hobbies &amp; Stuff/Computer/Shivam/web2py/applications/admin/&#x27;, &#x27;/Users/Abhinav/Documents/Hobbies &amp; Stuff/Computer/Shivam/web2py/applications/welcome/&#x27;])</div></td></tr><tr><td style="font-weight:bold;vertical-align:top;">applications_parent</td><td style="vertical-align:top;">:</td><td><div>/Users/Abhinav/Documents/Hobbies &amp; Stuff/Computer/Shivam/web2py</div></td></tr><tr><td style="font-weight:bold;vertical-align:top;">cmd_args</td><td style="vertical-align:top;">:</td><td><div><table></table></div></td></tr><tr><td style="font-weight:bold;vertical-align:top;">cmd_options</td><td style="vertical-align:top;">:</td><td><div>&lt;Values at 0x107c642d8: {&#x27;verbose&#x27;: False, &#x27;ip&#x27;: &#x27;127.0.0.1&#x27;, &#x27;debuglevel&#x27;: 30, &#x27;with_scheduler&#x27;: False, &#x27;ips&#x27;: [&#x27;10.193.8.234&#x27;, &#x27;fe80::1240:f3ff:feaa:8884%en1&#x27;], &#x27;shutdown_timeout&#x27;: 5, &#x27;taskbar&#x27;: False, &#x27;with_coverage&#x27;: False, &#x27;port&#x27;: 8000, &#x27;maxthreads&#x27;: None, &#x27;softcron&#x27;: False, &#x27;server_name&#x27;: &#x27;Abhinavs-MacBook-Pro.local&#x27;, &#x27;bpython&#x27;: False, &#x27;nogui&#x27;: False, &#x27;pid_filename&#x27;: &#x27;httpserver.pid&#x27;, &#x27;extcron&#x27;: False, &#x27;runcron&#x27;: False, &#x27;run_system_tests&#x27;: False, &#x27;test&#x27;: None, &#x27;folder&#x27;: &#x27;/Users/Abhinav/Documents/Hobbies &amp; Stuff/Computer/Shivam/web2py&#x27;, &#x27;config&#x27;: &#x27;&#x27;, &#x27;minthreads&#x27;: None, &#x27;shell&#x27;: None, &#x27;run&#x27;: &#x27;&#x27;, &#x27;log_filename&#x27;: &#x27;httpserver.log&#x27;, &#x27;profiler_dir&#x27;: None, &#x27;args&#x27;: [&#x27;&#x27;], &#x27;socket_timeout&#x27;: 5, &#x27;ssl_ca_certificate&#x27;: None, &#x27;scheduler&#x27;: None, &#x27;interfaces&#x27;: None, &#x27;ssl_private_key&#x27;: &#x27;&#x27;, &#x27;scheduler_groups&#x27;: None, &#x27;password&#x27;: &#x27;&lt;ask&gt;&#x27;, &#x27;request_queue_size&#x27;: 5, &#x27;ssl_certificate&#x27;: &#x27;&#x27;, &#x27;cronjob&#x27;: False, &#x27;numthreads&#x27;: None, &#x27;quiet&#x27;: False, &#x27;import_models&#x27;: False, &#x27;timeout&#x27;: 10, &#x27;plain&#x27;: False, &#x27;nobanner&#x27;: False}&gt;</div></td></tr><tr><td style="font-weight:bold;vertical-align:top;">db_sessions</td><td style="vertical-align:top;">:</td><td><div>set([])</div></td></tr><tr><td style="font-weight:bold;vertical-align:top;">debugging</td><td style="vertical-align:top;">:</td><td><div>True</div></td></tr><tr><td style="font-weight:bold;vertical-align:top;">gluon_parent</td><td style="vertical-align:top;">:</td><td><div>/Users/Abhinav/Documents/Hobbies &amp; Stuff/Computer/Shivam/web2py</div></td></tr><tr><td style="font-weight:bold;vertical-align:top;">http_accept</td><td style="vertical-align:top;">:</td><td><div>text/html,application/xhtml+xml,application/xml;q=0.9,*/*;q=0.8</div></td></tr><tr><td style="font-weight:bold;vertical-align:top;">http_accept_encoding</td><td style="vertical-align:top;">:</td><td><div>gzip, deflate</div></td></tr><tr><td style="font-weight:bold;vertical-align:top;">http_accept_language</td><td style="vertical-align:top;">:</td><td><div>en-us</div></td></tr><tr><td style="font-weight:bold;vertical-align:top;">http_cache_control</td><td style="vertical-align:top;">:</td><td><div>max-age=0</div></td></tr><tr><td style="font-weight:bold;vertical-align:top;">http_connection</td><td style="vertical-align:top;">:</td><td><div>keep-alive</div></td></tr><tr><td style="font-weight:bold;vertical-align:top;">http_cookie</td><td style="vertical-align:top;">:</td><td><div>session_id_admin=127.0.0.1-79ea93ae-6946-43f8-87ba-fec795a94ea0; session_id_schedule=127.0.0.1-c579022b-6d9b-472d-8d85-7b9db3318d64; session_id_welcome=127.0.0.1-eeb5dd77-fc31-4489-a23d-970613dafa77</div></td></tr><tr><td style="font-weight:bold;vertical-align:top;">http_host</td><td style="vertical-align:top;">:</td><td><div>127.0.0.1:8000</div></td></tr><tr><td style="font-weight:bold;vertical-align:top;">http_user_agent</td><td style="vertical-align:top;">:</td><td><div>Mozilla/5.0 (Macintosh; Intel Mac OS X 10_9) AppleWebKit/537.71 (KHTML, like Gecko) Version/7.0 Safari/537.71</div></td></tr><tr><td style="font-weight:bold;vertical-align:top;">is_jython</td><td style="vertical-align:top;">:</td><td><div>False</div></td></tr><tr><td style="font-weight:bold;vertical-align:top;">is_pypy</td><td style="vertical-align:top;">:</td><td><div>False</div></td></tr><tr><td style="font-weight:bold;vertical-align:top;">is_source</td><td style="vertical-align:top;">:</td><td><div>True</div></td></tr><tr><td style="font-weight:bold;vertical-align:top;">local_hosts</td><td style="vertical-align:top;">:</td><td><div><table><tr><td><div>Abhinavs-MacBook-Pro.local</div></td></tr><tr><td><div>::ffff:127.0.0.1</div></td></tr><tr><td><div>::1</div></td></tr><tr><td><div>fe80::1240:f3ff:feaa:8884%en1</div></td></tr><tr><td><div>10.193.8.234</div></td></tr><tr><td><div>127.0.0.1</div></td></tr></table></div></td></tr><tr><td style="font-weight:bold;vertical-align:top;">path_info</td><td style="vertical-align:top;">:</td><td><div>/Schedule/default/mainpage.html</div></td></tr><tr><td style="font-weight:bold;vertical-align:top;">query_string</td><td style="vertical-align:top;">:</td><td><div></div></td></tr><tr><td style="font-weight:bold;vertical-align:top;">remote_addr</td><td style="vertical-align:top;">:</td><td><div>127.0.0.1</div></td></tr><tr><td style="font-weight:bold;vertical-align:top;">remote_port</td><td style="vertical-align:top;">:</td><td><div>57011</div></td></tr><tr><td style="font-weight:bold;vertical-align:top;">request_method</td><td style="vertical-align:top;">:</td><td><div>GET</div></td></tr><tr><td style="font-weight:bold;vertical-align:top;">request_uri</td><td style="vertical-align:top;">:</td><td><div>/Schedule/default/mainpage.html</div></td></tr><tr><td style="font-weight:bold;vertical-align:top;">script_name</td><td style="vertical-align:top;">:</td><td><div></div></td></tr><tr><td style="font-weight:bold;vertical-align:top;">server_name</td><td style="vertical-align:top;">:</td><td><div>Abhinavs-MacBook-Pro.local</div></td></tr><tr><td style="font-weight:bold;vertical-align:top;">server_port</td><td style="vertical-align:top;">:</td><td><div>8000</div></td></tr><tr><td style="font-weight:bold;vertical-align:top;">server_protocol</td><td style="vertical-align:top;">:</td><td><div>HTTP/1.1</div></td></tr><tr><td style="font-weight:bold;vertical-align:top;">server_software</td><td style="vertical-align:top;">:</td><td><div>Rocket 1.2.6</div></td></tr><tr><td style="font-weight:bold;vertical-align:top;">web2py_path</td><td style="vertical-align:top;">:</td><td><div>/Users/Abhinav/Documents/Hobbies &amp; Stuff/Computer/Shivam/web2py</div></td></tr><tr><td style="font-weight:bold;vertical-align:top;">web2py_version</td><td style="vertical-align:top;">:</td><td><div>2.9.5-stable+timestamp.2014.03.16.02.35.39</div></td></tr><tr><td style="font-weight:bold;vertical-align:top;">wsgi.errors</td><td style="vertical-align:top;">:</td><td><div>&lt;open file &#x27;&lt;stderr&gt;&#x27;, mode &#x27;w&#x27; at 0x105dc71e0&gt;</div></td></tr><tr><td style="font-weight:bold;vertical-align:top;">wsgi.file_wrapper</td><td style="vertical-align:top;">:</td><td><div>&lt;class wsgiref.util.FileWrapper at 0x107c073f8&gt;</div></td></tr><tr><td style="font-weight:bold;vertical-align:top;">wsgi.input</td><td style="vertical-align:top;">:</td><td><div>&lt;socket._fileobject object at 0x107c75450&gt;</div></td></tr><tr><td style="font-weight:bold;vertical-align:top;">wsgi.multiprocess</td><td style="vertical-align:top;">:</td><td><div>False</div></td></tr><tr><td style="font-weight:bold;vertical-align:top;">wsgi.multithread</td><td style="vertical-align:top;">:</td><td><div>True</div></td></tr><tr><td style="font-weight:bold;vertical-align:top;">wsgi.run_once</td><td style="vertical-align:top;">:</td><td><div>False</div></td></tr><tr><td style="font-weight:bold;vertical-align:top;">wsgi.url_scheme</td><td style="vertical-align:top;">:</td><td><div>http</div></td></tr><tr><td style="font-weight:bold;vertical-align:top;">wsgi.version</td><td style="vertical-align:top;">:</td><td><div><table><tr><td><div>1</div></td></tr><tr><td><div>0</div></td></tr></table></div></td></tr><tr><td style="font-weight:bold;vertical-align:top;">wsgi_errors</td><td style="vertical-align:top;">:</td><td><div>&lt;open file &#x27;&lt;stderr&gt;&#x27;, mode &#x27;w&#x27; at 0x105dc71e0&gt;</div></td></tr><tr><td style="font-weight:bold;vertical-align:top;">wsgi_file_wrapper</td><td style="vertical-align:top;">:</td><td><div>&lt;class wsgiref.util.FileWrapper at 0x107c073f8&gt;</div></td></tr><tr><td style="font-weight:bold;vertical-align:top;">wsgi_input</td><td style="vertical-align:top;">:</td><td><div>&lt;socket._fileobject object at 0x107c75450&gt;</div></td></tr><tr><td style="font-weight:bold;vertical-align:top;">wsgi_multiprocess</td><td style="vertical-align:top;">:</td><td><div>False</div></td></tr><tr><td style="font-weight:bold;vertical-align:top;">wsgi_multithread</td><td style="vertical-align:top;">:</td><td><div>True</div></td></tr><tr><td style="font-weight:bold;vertical-align:top;">wsgi_run_once</td><td style="vertical-align:top;">:</td><td><div>False</div></td></tr><tr><td style="font-weight:bold;vertical-align:top;">wsgi_url_scheme</td><td style="vertical-align:top;">:</td><td><div>http</div></td></tr><tr><td style="font-weight:bold;vertical-align:top;">wsgi_version</td><td style="vertical-align:top;">:</td><td><div><table><tr><td><div>1</div></td></tr><tr><td><div>0</div></td></tr></table></div></td></tr></table></div></td></tr><tr><td style="font-weight:bold;vertical-align:top;">extension</td><td style="vertical-align:top;">:</td><td><div>html</div></td></tr><tr><td style="font-weight:bold;vertical-align:top;">folder</td><td style="vertical-align:top;">:</td><td><div>/Users/Abhinav/Documents/Hobbies &amp; Stuff/Computer/Shivam/web2py/applications/Schedule/</div></td></tr><tr><td style="font-weight:bold;vertical-align:top;">function</td><td style="vertical-align:top;">:</td><td><div>mainpage</div></td></tr><tr><td style="font-weight:bold;vertical-align:top;">global_settings</td><td style="vertical-align:top;">:</td><td><div><table><tr><td style="font-weight:bold;vertical-align:top;">app_folders</td><td style="vertical-align:top;">:</td><td><div>set([&#x27;/Users/Abhinav/Documents/Hobbies &amp; Stuff/Computer/Shivam/web2py/applications/Schedule/&#x27;, &#x27;/Users/Abhinav/Documents/Hobbies &amp; Stuff/Computer/Shivam/web2py/applications/admin/&#x27;, &#x27;/Users/Abhinav/Documents/Hobbies &amp; Stuff/Computer/Shivam/web2py/applications/welcome/&#x27;])</div></td></tr><tr><td style="font-weight:bold;vertical-align:top;">applications_parent</td><td style="vertical-align:top;">:</td><td><div>/Users/Abhinav/Documents/Hobbies &amp; Stuff/Computer/Shivam/web2py</div></td></tr><tr><td style="font-weight:bold;vertical-align:top;">cmd_args</td><td style="vertical-align:top;">:</td><td><div><table></table></div></td></tr><tr><td style="font-weight:bold;vertical-align:top;">cmd_options</td><td style="vertical-align:top;">:</td><td><div>&lt;Values at 0x107c642d8: {&#x27;verbose&#x27;: False, &#x27;ip&#x27;: &#x27;127.0.0.1&#x27;, &#x27;debuglevel&#x27;: 30, &#x27;with_scheduler&#x27;: False, &#x27;ips&#x27;: [&#x27;10.193.8.234&#x27;, &#x27;fe80::1240:f3ff:feaa:8884%en1&#x27;], &#x27;shutdown_timeout&#x27;: 5, &#x27;taskbar&#x27;: False, &#x27;with_coverage&#x27;: False, &#x27;port&#x27;: 8000, &#x27;maxthreads&#x27;: None, &#x27;softcron&#x27;: False, &#x27;server_name&#x27;: &#x27;Abhinavs-MacBook-Pro.local&#x27;, &#x27;bpython&#x27;: False, &#x27;nogui&#x27;: False, &#x27;pid_filename&#x27;: &#x27;httpserver.pid&#x27;, &#x27;extcron&#x27;: False, &#x27;runcron&#x27;: False, &#x27;run_system_tests&#x27;: False, &#x27;test&#x27;: None, &#x27;folder&#x27;: &#x27;/Users/Abhinav/Documents/Hobbies &amp; Stuff/Computer/Shivam/web2py&#x27;, &#x27;config&#x27;: &#x27;&#x27;, &#x27;minthreads&#x27;: None, &#x27;shell&#x27;: None, &#x27;run&#x27;: &#x27;&#x27;, &#x27;log_filename&#x27;: &#x27;httpserver.log&#x27;, &#x27;profiler_dir&#x27;: None, &#x27;args&#x27;: [&#x27;&#x27;], &#x27;socket_timeout&#x27;: 5, &#x27;ssl_ca_certificate&#x27;: None, &#x27;scheduler&#x27;: None, &#x27;interfaces&#x27;: None, &#x27;ssl_private_key&#x27;: &#x27;&#x27;, &#x27;scheduler_groups&#x27;: None, &#x27;password&#x27;: &#x27;&lt;ask&gt;&#x27;, &#x27;request_queue_size&#x27;: 5, &#x27;ssl_certificate&#x27;: &#x27;&#x27;, &#x27;cronjob&#x27;: False, &#x27;numthreads&#x27;: None, &#x27;quiet&#x27;: False, &#x27;import_models&#x27;: False, &#x27;timeout&#x27;: 10, &#x27;plain&#x27;: False, &#x27;nobanner&#x27;: False}&gt;</div></td></tr><tr><td style="font-weight:bold;vertical-align:top;">db_sessions</td><td style="vertical-align:top;">:</td><td><div>set([])</div></td></tr><tr><td style="font-weight:bold;vertical-align:top;">debugging</td><td style="vertical-align:top;">:</td><td><div>True</div></td></tr><tr><td style="font-weight:bold;vertical-align:top;">gluon_parent</td><td style="vertical-align:top;">:</td><td><div>/Users/Abhinav/Documents/Hobbies &amp; Stuff/Computer/Shivam/web2py</div></td></tr><tr><td style="font-weight:bold;vertical-align:top;">is_jython</td><td style="vertical-align:top;">:</td><td><div>False</div></td></tr><tr><td style="font-weight:bold;vertical-align:top;">is_pypy</td><td style="vertical-align:top;">:</td><td><div>False</div></td></tr><tr><td style="font-weight:bold;vertical-align:top;">is_source</td><td style="vertical-align:top;">:</td><td><div>True</div></td></tr><tr><td style="font-weight:bold;vertical-align:top;">local_hosts</td><td style="vertical-align:top;">:</td><td><div><table><tr><td><div>Abhinavs-MacBook-Pro.local</div></td></tr><tr><td><div>::ffff:127.0.0.1</div></td></tr><tr><td><div>::1</div></td></tr><tr><td><div>fe80::1240:f3ff:feaa:8884%en1</div></td></tr><tr><td><div>10.193.8.234</div></td></tr><tr><td><div>127.0.0.1</div></td></tr></table></div></td></tr><tr><td style="font-weight:bold;vertical-align:top;">web2py_version</td><td style="vertical-align:top;">:</td><td><div>2.9.5-stable+timestamp.2014.03.16.02.35.39</div></td></tr></table></div></td></tr><tr><td style="font-weight:bold;vertical-align:top;">is_https</td><td style="vertical-align:top;">:</td><td><div>False</div></td></tr><tr><td style="font-weight:bold;vertical-align:top;">is_local</td><td style="vertical-align:top;">:</td><td><div>True</div></td></tr><tr><td style="font-weight:bold;vertical-align:top;">is_restful</td><td style="vertical-align:top;">:</td><td><div>False</div></td></tr><tr><td style="font-weight:bold;vertical-align:top;">now</td><td style="vertical-align:top;">:</td><td><div>datetime.datetime(2014, 6, 16, 15, 39, 13, 584546)</div></td></tr><tr><td style="font-weight:bold;vertical-align:top;">raw_args</td><td style="vertical-align:top;">:</td><td><div></div></td></tr><tr><td style="font-weight:bold;vertical-align:top;">raw_extension</td><td style="vertical-align:top;">:</td><td><div>html</div></td></tr><tr><td style="font-weight:bold;vertical-align:top;">url</td><td style="vertical-align:top;">:</td><td><div>/Schedule/default/mainpage.html</div></td></tr><tr><td style="font-weight:bold;vertical-align:top;">utcnow</td><td style="vertical-align:top;">:</td><td><div>datetime.datetime(2014, 6, 16, 10, 9, 13, 584555)</div></td></tr><tr><td style="font-weight:bold;vertical-align:top;">uuid</td><td style="vertical-align:top;">:</td><td><div>Schedule/127.0.0.1.2014-06-16.15-39-13.d6955819-f0d9-4f02-bfb1-e14ffc1f6785</div></td></tr><tr><td style="font-weight:bold;vertical-align:top;">wsgi</td><td style="vertical-align:top;">:</td><td><div>&lt;gluon.main.LazyWSGI object at 0x1107e89d0&gt;</div></td></tr></table></div>'
tRp62
sS'frames'
p63
(lp64
(dp65
S'file'
p66
S'/Users/Abhinav/Documents/Hobbies & Stuff/Computer/Shivam/web2py/gluon/restricted.py'
p67
sS'dump'
p68
(dp69
S'environment'
p70
S"{'A': <class 'gluon.html.A'>, 'ANY_OF': <class 'gluon.validators.ANY_OF'>, 'Auth': <class 'gluon.tools.Auth'>, 'B': <class 'gluon.html.B'>, 'BEAUTIFY': <class 'gluon.html.BEAUTIFY'>, 'BODY': <class 'gluon.html.BODY'>, 'BR': <class 'gluon.html.BR'>, 'BUTTON': <class 'gluon.html.BUTTON'>, 'CAT': <class 'gluon.html.CAT'>, 'CENTER': <class 'gluon.html.CENTER'>, ...}"
p71
sS'ccode'
p72
S'<code object <module> at 0x10cad9cb0, file "/Use...ations/Schedule/controllers/default.py", line 13>'
p73
ssS'lnum'
p74
I220
sS'lines'
p75
(dp76
I224
S'        # do not encapsulate (obfuscate) the original RestrictedError'
p77
sI215
S'    try:'
p78
sI216
S'        if isinstance(code, types.CodeType):'
p79
sI217
S'            ccode = code'
p80
sI218
S'        else:'
p81
sI219
S'            ccode = compile2(code, layer)'
p82
sI220
S'        exec ccode in environment'
p83
sI221
S'    except HTTP:'
p84
sI222
S'        raise'
p85
sI223
S'    except RestrictedError:'
p86
ssS'call'
p87
S"(code='# -*- coding: utf-8 -*-\\n# this file is released ...s2=b)\\n\\nresponse._vars=response._caller(mainpage)\\n', environment={'A': <class 'gluon.html.A'>, 'ANY_OF': <class 'gluon.validators.ANY_OF'>, 'Auth': <class 'gluon.tools.Auth'>, 'B': <class 'gluon.html.B'>, 'BEAUTIFY': <class 'gluon.html.BEAUTIFY'>, 'BODY': <class 'gluon.html.BODY'>, 'BR': <class 'gluon.html.BR'>, 'BUTTON': <class 'gluon.html.BUTTON'>, 'CAT': <class 'gluon.html.CAT'>, 'CENTER': <class 'gluon.html.CENTER'>, ...}, layer='/Users/Abhinav/Documents/Hobbies & Stuff/Compute...b2py/applications/Schedule/controllers/default.py')"
p88
sS'func'
p89
S'restricted'
p90
sa(dp91
g66
S'/Users/Abhinav/Documents/Hobbies & Stuff/Computer/Shivam/web2py/applications/Schedule/controllers/default.py'
p92
sg68
(dp93
sg74
I91
sg75
(dp94
I80
S'    record1 = auth.user.first_name+" "+auth.user.last_name+" "+str(auth.user.id)'
p95
sI81
S'    record2 = db.executesql(\'SELECT tNo FROM usertables WHERE %s;\' %str("username==7"))'
p96
sI82
S''
sI83
S'    record3 = db.executesql("SELECT courseList,noteList FROM timetables WHERE (id = 3) or (id = 4)")'
p97
sI84
S'    a = []'
p98
sI85
S'    b = []'
p99
sI86
S'    for i in range (0,len(record3)):'
p100
sI87
S'        a.extend(record3[i][0].split("$$"))'
p101
sI88
S'        b.extend(record3[i][1].split("$$"))'
p102
sI89
S'    return dict(message0=T("Hello You have successfully logged in!"),message1=record1,message2=record2,message3=record3,mes1=a,mes2=b)'
p103
ssg87
S'()'
p104
sg89
S'<module>'
p105
sa(dp106
g66
S'/Users/Abhinav/Documents/Hobbies & Stuff/Computer/Shivam/web2py/gluon/globals.py'
p107
sg68
(dp108
S'self'
p109
S'undefined'
p110
sS'f'
S'<function mainpage>'
p111
ssg74
I385
sg75
(dp112
I384
S'        self._vars = None'
p113
sI385
S'        self._caller = lambda f: f()'
p114
sI386
S'        self._view_environment = None'
p115
sI387
S'        self._custom_commit = None'
p116
sI388
S'        self._custom_rollback = None'
p117
sI389
S''
sI380
S'        self.menu = []             # used by the default view layout'
p118
sI381
S'        self.files = []            # used by web2py_ajax.html'
p119
sI382
S'        self.generic_patterns = []  # patterns to allow generic views'
p120
sI383
S"        self.delimiters = ('{{', '}}')"
p121
ssg87
S'(f=<function mainpage>)'
p122
sg89
S'<lambda>'
p123
sa(dp124
g66
S'/Users/Abhinav/Documents/Hobbies & Stuff/Computer/Shivam/web2py/applications/Schedule/controllers/default.py'
p125
sg68
(dp126
S'record2'
p127
g110
sS'global db'
p128
S'<DAL uri="postgres:******@localhost/timetable">'
p129
sS'db.executesql'
p130
S'<bound method DAL.executesql of <DAL uri="postgres:******@localhost/timetable">>'
p131
sS'builtinstr'
p132
S"<type 'str'>"
p133
ssg74
I81
sg75
(dp134
I76
S'    """'
p135
sI77
S'    return dict(form=crud())'
p136
sI78
S''
sI79
S'def mainpage():'
p137
sI80
S'    record1 = auth.user.first_name+" "+auth.user.last_name+" "+str(auth.user.id)'
p138
sI81
S'    record2 = db.executesql(\'SELECT tNo FROM usertables WHERE %s;\' %str("username==7"))'
p139
sI82
S''
sI83
S'    record3 = db.executesql("SELECT courseList,noteList FROM timetables WHERE (id = 3) or (id = 4)")'
p140
sI84
S'    a = []'
p141
sI85
S'    b = []'
p142
ssg87
S'()'
p143
sg89
S'mainpage'
p144
sa(dp145
g66
S'/Users/Abhinav/Documents/Hobbies & Stuff/Computer/Shivam/web2py/gluon/dal.py'
p146
sg68
(dp147
S'query'
p148
S"'SELECT tNo FROM usertables WHERE username==7;'"
p149
sS'adapter'
p150
S'<gluon.dal.PostgreSQLAdapter object>'
p151
sS'adapter.execute'
p152
S'<bound method PostgreSQLAdapter.execute of <gluon.dal.PostgreSQLAdapter object>>'
p153
ssg74
I8433
sg75
(dp154
I8428
S'        """'
p155
sI8429
S'        adapter = self._adapter'
p156
sI8430
S'        if placeholders:'
p157
sI8431
S'            adapter.execute(query, placeholders)'
p158
sI8432
S'        else:'
p159
sI8433
S'            adapter.execute(query)'
p160
sI8434
S'        if as_dict or as_ordered_dict:'
p161
sI8435
S"            if not hasattr(adapter.cursor,'description'):"
p162
sI8436
S'                raise RuntimeError("database does not support executesql(...,as_dict=True)")'
p163
sI8437
S'            # Non-DAL legacy db query, converts cursor results to dict.'
p164
ssg87
S'(self=<DAL uri="postgres:******@localhost/timetable">, query=\'SELECT tNo FROM usertables WHERE username==7;\', placeholders=None, as_dict=False, fields=None, colnames=None, as_ordered_dict=False)'
p165
sg89
S'executesql'
p166
sa(dp167
g66
S'/Users/Abhinav/Documents/Hobbies & Stuff/Computer/Shivam/web2py/gluon/dal.py'
p168
sg68
(dp169
S'a'
S"('SELECT tNo FROM usertables WHERE username==7;',)"
p170
sS'self'
p171
S'<gluon.dal.PostgreSQLAdapter object>'
p172
sS'b'
g21
sS'self.log_execute'
p173
S'<bound method PostgreSQLAdapter.log_execute of <gluon.dal.PostgreSQLAdapter object>>'
p174
ssg74
I1969
sg75
(dp175
I1964
S'        self.db._timings.append((command,time.time()-t0))'
p176
sI1965
S'        del self.db._timings[:-TIMINGSSIZE]'
p177
sI1966
S'        return ret'
p178
sI1967
S''
sI1968
S'    def execute(self, *a, **b):'
p179
sI1969
S'        return self.log_execute(*a, **b)'
p180
sI1970
S''
sI1971
S'    def represent(self, obj, fieldtype):'
p181
sI1972
S'        field_is_type = fieldtype.startswith'
p182
sI1973
S'        if isinstance(obj, CALLABLETYPES):'
p183
ssg87
S"(self=<gluon.dal.PostgreSQLAdapter object>, *a=('SELECT tNo FROM usertables WHERE username==7;',), **b={})"
p184
sg89
S'execute'
p185
sa(dp186
g66
S'/Users/Abhinav/Documents/Hobbies & Stuff/Computer/Shivam/web2py/gluon/dal.py'
p187
sg68
(dp188
S'a'
S"('SELECT tNo FROM usertables WHERE username==7;',)"
p189
sS'b'
g21
sS'self'
p190
S'<gluon.dal.PostgreSQLAdapter object>'
p191
sS'ret'
p192
g110
sS'self.cursor'
p193
S'<gluon.contrib.pg8000.dbapi.CursorWrapper object>'
p194
sS'command'
p195
S"'SELECT tNo FROM usertables WHERE username==7;'"
p196
sS'self.cursor.execute'
p197
S'<bound method CursorWrapper._fn of <gluon.contrib.pg8000.dbapi.CursorWrapper object>>'
p198
ssg74
I1963
sg75
(dp199
I1958
S'            command = self.filter_sql_command(command)'
p200
sI1959
S'        if self.db._debug:'
p201
sI1960
S"            LOGGER.debug('SQL: %s' % command)"
p202
sI1961
S'        self.db._lastsql = command'
p203
sI1962
S'        t0 = time.time()'
p204
sI1963
S'        ret = self.cursor.execute(command, *a[1:], **b)'
p205
sI1964
S'        self.db._timings.append((command,time.time()-t0))'
p206
sI1965
S'        del self.db._timings[:-TIMINGSSIZE]'
p207
sI1966
S'        return ret'
p208
sI1967
S''
ssg87
S"(self=<gluon.dal.PostgreSQLAdapter object>, *a=('SELECT tNo FROM usertables WHERE username==7;',), **b={})"
p209
sg89
S'log_execute'
p210
sa(dp211
g66
S'/Users/Abhinav/Documents/Hobbies & Stuff/Computer/Shivam/web2py/gluon/contrib/pg8000/dbapi.py'
p212
sg68
(dp213
S'self'
p214
S'<gluon.contrib.pg8000.dbapi.CursorWrapper object>'
p215
sS'args'
p216
S"('SELECT tNo FROM usertables WHERE username==7;',)"
p217
sS'fn'
p218
S'<function execute>'
p219
sS'kwargs'
p220
g21
ssg74
I246
sg75
(dp221
I241
S''
sI242
S'def require_open_cursor(fn):'
p222
sI243
S'    def _fn(self, *args, **kwargs):'
p223
sI244
S'        if self.cursor == None:'
p224
sI245
S'            raise CursorClosedError()'
p225
sI246
S'        return fn(self, *args, **kwargs)'
p226
sI247
S'    return _fn'
p227
sI248
S''
sI249
S'##'
p228
sI250
S'# The class of object returned by the {@link #ConnectionWrapper.cursor cursor method}.'
p229
ssg87
S"(self=<gluon.contrib.pg8000.dbapi.CursorWrapper object>, *args=('SELECT tNo FROM usertables WHERE username==7;',), **kwargs={})"
p230
sg89
S'_fn'
p231
sa(dp232
g66
S'/Users/Abhinav/Documents/Hobbies & Stuff/Computer/Shivam/web2py/gluon/contrib/pg8000/dbapi.py'
p233
sg68
(dp234
S'self._execute'
p235
S'<bound method CursorWrapper._execute of <gluon.contrib.pg8000.dbapi.CursorWrapper object>>'
p236
sS'self'
p237
S'<gluon.contrib.pg8000.dbapi.CursorWrapper object>'
p238
sS'args'
p239
S'()'
p240
sS'operation'
p241
S"'SELECT tNo FROM usertables WHERE username==7;'"
p242
ssg74
I317
sg75
(dp243
I320
S'        new_query, new_args = convert_paramstyle(paramstyle, operation, args)'
p244
sI321
S'        try:'
p245
sI312
S'    @require_open_cursor'
p246
sI313
S'    def execute(self, operation, args=()):'
p247
sI314
S'        if not self._connection.in_transaction:'
p248
sI315
S'            self._connection.begin()'
p249
sI316
S'        self._override_rowcount = None'
p250
sI317
S'        self._execute(operation, args)'
p251
sI318
S''
sI319
S'    def _execute(self, operation, args=()):'
p252
ssg87
S"(self=<gluon.contrib.pg8000.dbapi.CursorWrapper object>, operation='SELECT tNo FROM usertables WHERE username==7;', args=())"
p253
sg89
g185
sa(dp254
g66
S'/Users/Abhinav/Documents/Hobbies & Stuff/Computer/Shivam/web2py/gluon/contrib/pg8000/dbapi.py'
p255
sg68
(dp256
S'new_args'
p257
S'()'
p258
sS'self.cursor'
p259
S'<gluon.contrib.pg8000.interface.Cursor object>'
p260
sS'self'
p261
S'<gluon.contrib.pg8000.dbapi.CursorWrapper object>'
p262
sS'new_query'
p263
S"'SELECT tNo FROM usertables WHERE username==7;'"
p264
sS'self.cursor.execute'
p265
S'<bound method Cursor.execute of <gluon.contrib.pg8000.interface.Cursor object>>'
p266
ssg74
I322
sg75
(dp267
I320
S'        new_query, new_args = convert_paramstyle(paramstyle, operation, args)'
p268
sI321
S'        try:'
p269
sI322
S'            self.cursor.execute(new_query, *new_args)'
p270
sI323
S'        except ConnectionClosedError:'
p271
sI324
S"            # can't rollback in this case"
p272
sI325
S'            raise'
p273
sI326
S'        except:'
p274
sI317
S'        self._execute(operation, args)'
p275
sI318
S''
sI319
S'    def _execute(self, operation, args=()):'
p276
ssg87
S"(self=<gluon.contrib.pg8000.dbapi.CursorWrapper object>, operation='SELECT tNo FROM usertables WHERE username==7;', args=())"
p277
sg89
S'_execute'
p278
sa(dp279
g66
S'/Users/Abhinav/Documents/Hobbies & Stuff/Computer/Shivam/web2py/gluon/contrib/pg8000/interface.py'
p280
sg68
(dp281
S'x'
g110
sS'args'
p282
S'()'
p283
sS'builtintype'
p284
S"<type 'type'>"
p285
sS'self._stmt'
p286
S'<gluon.contrib.pg8000.interface.PreparedStatement object>'
p287
sS'self'
p288
S'<gluon.contrib.pg8000.interface.Cursor object>'
p289
sS'self.connection'
p290
S'<gluon.contrib.pg8000.interface.Connection object>'
p291
sS'global PreparedStatement'
p292
S"<class 'gluon.contrib.pg8000.interface.PreparedStatement'>"
p293
sS'statement_name'
p294
g110
sS'query'
p295
S"'SELECT tNo FROM usertables WHERE username==7;'"
p296
ssg74
I398
sg75
(dp297
I393
S'                # use PostgreSQL Simple Query Protocol'
p298
sI394
S'                ## print "SimpleQuery:", query'
p299
sI395
S'                self._stmt = SimpleStatement(self.connection, query)'
p300
sI396
S'            else:'
p301
sI397
S'                # use PostgreSQL Extended Query Protocol'
p302
sI398
S'                self._stmt = PreparedStatement(self.connection, query, statement_name="", *[{"type": type(x), "value": x} for x in args])'
p303
sI399
S'            self._stmt.execute(*args, **kwargs)'
p304
sI400
S'        finally:'
p305
sI401
S'            self.connection._unnamed_prepared_statement_lock.release()'
p306
sI402
S''
ssg87
S"(self=<gluon.contrib.pg8000.interface.Cursor object>, query='SELECT tNo FROM usertables WHERE username==7;', *args=(), **kwargs={})"
p307
sg89
g185
sa(dp308
g66
S'/Users/Abhinav/Documents/Hobbies & Stuff/Computer/Shivam/web2py/gluon/contrib/pg8000/interface.py'
p309
sg68
(dp310
S'self.c'
p311
S'<gluon.contrib.pg8000.protocol.Connection object>'
p312
sS'self'
p313
S'<gluon.contrib.pg8000.interface.PreparedStatement object>'
p314
sS'self.c.parse'
p315
S'<bound method Connection._fn of <gluon.contrib.pg8000.protocol.Connection object>>'
p316
sS'self._statement_name'
p317
S"''"
p318
sS'self._parse_row_desc'
p319
g110
sS'statement'
p320
S"'SELECT tNo FROM usertables WHERE username==7;'"
p321
sS'types'
p322
S'()'
p323
ssg74
I138
sg75
(dp324
I133
S'        self._statement_name = kwargs.get("statement_name", "pg8000_statement_%s" % self._statement_number)'
p325
sI134
S'        self._row_desc = None'
p326
sI135
S'        self._cached_rows = []'
p327
sI136
S'        self._ongoing_row_count = 0'
p328
sI137
S'        self._command_complete = True'
p329
sI138
S'        self._parse_row_desc = self.c.parse(self._statement_name, statement, types)'
p330
sI139
S'        self._lock = threading.RLock()'
p331
sI140
S''
sI141
S'    def close(self):'
p332
sI142
S'        if self._statement_name != "": # don\'t close unnamed statement'
p333
ssg87
S"(self=<gluon.contrib.pg8000.interface.PreparedStatement object>, connection=<gluon.contrib.pg8000.interface.Connection object>, statement='SELECT tNo FROM usertables WHERE username==7;', *types=(), **kwargs={'statement_name': ''})"
p334
sg89
g26
sa(dp335
g66
S'/Users/Abhinav/Documents/Hobbies & Stuff/Computer/Shivam/web2py/gluon/contrib/pg8000/protocol.py'
p336
sg68
(dp337
S'self'
p338
S'<gluon.contrib.pg8000.protocol.Connection object>'
p339
sS'args'
p340
S"('', 'SELECT tNo FROM usertables WHERE username==7;', ())"
p341
sS'fn'
p342
S'<function parse>'
p343
sS'kwargs'
p344
g21
ssg74
I943
sg75
(dp345
I938
S''
sI939
S'def sync_on_error(fn):'
p346
sI940
S'    def _fn(self, *args, **kwargs):'
p347
sI941
S'        try:'
p348
sI942
S'            self._sock_lock.acquire()'
p349
sI943
S'            return fn(self, *args, **kwargs)'
p350
sI944
S'        except:'
p351
sI945
S'            self._sync()'
p352
sI946
S'            raise'
p353
sI947
S'        finally:'
p354
ssg87
S"(self=<gluon.contrib.pg8000.protocol.Connection object>, *args=('', 'SELECT tNo FROM usertables WHERE username==7;', ()), **kwargs={})"
p355
sg89
g231
sa(dp356
g66
S'/Users/Abhinav/Documents/Hobbies & Stuff/Computer/Shivam/web2py/gluon/contrib/pg8000/protocol.py'
p357
sg68
(dp358
S'reader.handle_messages'
p359
S'<bound method MessageReader.handle_messages of <gluon.contrib.pg8000.protocol.MessageReader object>>'
p360
sS'reader'
p361
S'<gluon.contrib.pg8000.protocol.MessageReader object>'
p362
ssg74
I1104
sg75
(dp363
I1099
S'        reader.add_message(NoData, lambda msg: (None, param_fc))'
p364
sI1100
S''
sI1101
S'        # Common row description response'
p365
sI1102
S'        reader.add_message(RowDescription, lambda msg: (msg, param_fc))'
p366
sI1103
S''
sI1104
S'        return reader.handle_messages()'
p367
sI1105
S''
sI1106
S'    @sync_on_error'
p368
sI1107
S'    def bind(self, portal, statement, params, parse_data, copy_stream):'
p369
sI1108
S'        self.verifyState("ready")'
p370
ssg87
S"(self=<gluon.contrib.pg8000.protocol.Connection object>, statement='', qs='SELECT tNo FROM usertables WHERE username==7;', param_types=[])"
p371
sg89
S'parse'
p372
sa(dp373
g66
S'/Users/Abhinav/Documents/Hobbies & Stuff/Computer/Shivam/web2py/gluon/contrib/pg8000/protocol.py'
p374
sg68
(dp375
S'exc'
p376
S"ProgrammingError('ERROR', '42883', 'operator does not exist: integer == integer')"
p377
ssg74
I929
sg75
(dp378
I928
S'                if not self.delay_raising_exception:'
p379
sI929
S'                    raise exc'
p380
sI930
S'            elif isinstance(msg, NoticeResponse):'
p381
sI931
S'                self._conn.handleNoticeResponse(msg)'
p382
sI932
S'            elif isinstance(msg, ParameterStatus):'
p383
sI933
S'                self._conn.handleParameterStatus(msg)'
p384
sI924
S'            if msg_handled:'
p385
sI925
S'                continue'
p386
sI926
S'            elif isinstance(msg, ErrorResponse):'
p387
sI927
S'                exc = msg.createException()'
p388
ssg87
S'(self=<gluon.contrib.pg8000.protocol.MessageReader object>)'
p389
sg89
S'handle_messages'
p390
sasS'pyver'
p391
S'Python 2.7.5: /usr/bin/python (prefix: /System/Library/Frameworks/Python.framework/Versions/2.7)'
p392
sS'session'
p393
g61
(S's\x1a\x0b\x00\x00<div><table><tr><td style="font-weight:bold;vertical-align:top;">auth</td><td style="vertical-align:top;">:</td><td><div><table><tr><td style="font-weight:bold;vertical-align:top;">expiration</td><td style="vertical-align:top;">:</td><td><div>3600</div></td></tr><tr><td style="font-weight:bold;vertical-align:top;">hmac_key</td><td style="vertical-align:top;">:</td><td><div>9857a855-9ac3-4e6d-9768-f24daa15f90d</div></td></tr><tr><td style="font-weight:bold;vertical-align:top;">last_visit</td><td style="vertical-align:top;">:</td><td><div>datetime.datetime(2014, 6, 16, 15, 39, 13, 584546)</div></td></tr><tr><td style="font-weight:bold;vertical-align:top;">remember</td><td style="vertical-align:top;">:</td><td><div>False</div></td></tr><tr><td style="font-weight:bold;vertical-align:top;">user</td><td style="vertical-align:top;">:</td><td><div><table><tr><td style="font-weight:bold;vertical-align:top;">EntryNo</td><td style="vertical-align:top;">:</td><td><div>2012CS50279</div></td></tr><tr><td style="font-weight:bold;vertical-align:top;">email</td><td style="vertical-align:top;">:</td><td><div>cs1120252@iitd.ac.in</div></td></tr><tr><td style="font-weight:bold;vertical-align:top;">first_name</td><td style="vertical-align:top;">:</td><td><div>Anshul</div></td></tr><tr><td style="font-weight:bold;vertical-align:top;">id</td><td style="vertical-align:top;">:</td><td><div>7L</div></td></tr><tr><td style="font-weight:bold;vertical-align:top;">last_name</td><td style="vertical-align:top;">:</td><td><div>Bawa</div></td></tr><tr><td style="font-weight:bold;vertical-align:top;">registration_id</td><td style="vertical-align:top;">:</td><td><div></div></td></tr><tr><td style="font-weight:bold;vertical-align:top;">registration_key</td><td style="vertical-align:top;">:</td><td><div></div></td></tr><tr><td style="font-weight:bold;vertical-align:top;">reset_password_key</td><td style="vertical-align:top;">:</td><td><div></div></td></tr><tr><td style="font-weight:bold;vertical-align:top;">username</td><td style="vertical-align:top;">:</td><td><div>abawa</div></td></tr></table></div></td></tr><tr><td style="font-weight:bold;vertical-align:top;">user_groups</td><td style="vertical-align:top;">:</td><td><div><table><tr><td style="font-weight:bold;vertical-align:top;">4</td><td style="vertical-align:top;">:</td><td><div>user_7</div></td></tr></table></div></td></tr></table></div></td></tr><tr><td style="font-weight:bold;vertical-align:top;">flash</td><td style="vertical-align:top;">:</td><td><div>None</div></td></tr><tr><td style="font-weight:bold;vertical-align:top;">last_orderby</td><td style="vertical-align:top;">:</td><td><div>None</div></td></tr><tr><td style="font-weight:bold;vertical-align:top;">last_query</td><td style="vertical-align:top;">:</td><td><div>db.usertables.id&gt;0</div></td></tr></table></div>'
tRp394
sS'etype'
p395
S"<class 'gluon.contrib.pg8000.errors.ProgrammingError'>"
p396
sS'date'
p397
S'Mon Jun 16 15:39:13 2014'
p398
sS'response'
p399
g61
(S's\xe11\x00\x00<div><table><tr><td style="font-weight:bold;vertical-align:top;">body</td><td style="vertical-align:top;">:</td><td><div>&lt;cStringIO.StringO object at 0x10c96ab58&gt;</div></td></tr><tr><td style="font-weight:bold;vertical-align:top;">cookies</td><td style="vertical-align:top;">:</td><td><div><table><tr><td style="font-weight:bold;vertical-align:top;">session_id_schedule</td><td style="vertical-align:top;">:</td><td><div>127.0.0.1-c579022b-6d9b-472d-8d85-7b9db3318d64<table><tr><td style="font-weight:bold;vertical-align:top;">comment</td><td style="vertical-align:top;">:</td><td><div></div></td></tr><tr><td style="font-weight:bold;vertical-align:top;">domain</td><td style="vertical-align:top;">:</td><td><div></div></td></tr><tr><td style="font-weight:bold;vertical-align:top;">expires</td><td style="vertical-align:top;">:</td><td><div></div></td></tr><tr><td style="font-weight:bold;vertical-align:top;">httponly</td><td style="vertical-align:top;">:</td><td><div></div></td></tr><tr><td style="font-weight:bold;vertical-align:top;">max-age</td><td style="vertical-align:top;">:</td><td><div></div></td></tr><tr><td style="font-weight:bold;vertical-align:top;">path</td><td style="vertical-align:top;">:</td><td><div>/</div></td></tr><tr><td style="font-weight:bold;vertical-align:top;">secure</td><td style="vertical-align:top;">:</td><td><div></div></td></tr><tr><td style="font-weight:bold;vertical-align:top;">version</td><td style="vertical-align:top;">:</td><td><div></div></td></tr></table></div></td></tr></table></div></td></tr><tr><td style="font-weight:bold;vertical-align:top;">delimiters</td><td style="vertical-align:top;">:</td><td><div><table><tr><td><div>{{</div></td></tr><tr><td><div>}}</div></td></tr></table></div></td></tr><tr><td style="font-weight:bold;vertical-align:top;">files</td><td style="vertical-align:top;">:</td><td><div><table></table></div></td></tr><tr><td style="font-weight:bold;vertical-align:top;">flash</td><td style="vertical-align:top;">:</td><td><div></div></td></tr><tr><td style="font-weight:bold;vertical-align:top;">generic_patterns</td><td style="vertical-align:top;">:</td><td><div><table><tr><td><div>*</div></td></tr></table></div></td></tr><tr><td style="font-weight:bold;vertical-align:top;">google_analytics_id</td><td style="vertical-align:top;">:</td><td><div>None</div></td></tr><tr><td style="font-weight:bold;vertical-align:top;">headers</td><td style="vertical-align:top;">:</td><td><div><table><tr><td style="font-weight:bold;vertical-align:top;">X-Powered-By</td><td style="vertical-align:top;">:</td><td><div>web2py</div></td></tr></table></div></td></tr><tr><td style="font-weight:bold;vertical-align:top;">logo</td><td style="vertical-align:top;">:</td><td><div><a class="brand" href="http://www.web2py.com/"><b>web<span>2</span>py</b>&trade;&nbsp;</a></div></td></tr><tr><td style="font-weight:bold;vertical-align:top;">menu</td><td style="vertical-align:top;">:</td><td><div><table><tr><td><div><table><tr><td><div>Home</div></td></tr><tr><td><div>False</div></td></tr><tr><td><div>/Schedule/default/index</div></td></tr><tr><td><div><table></table></div></td></tr></table></div></td></tr><tr><td><div><table><tr><td><div><span class="highlighted">web2py</span></div></td></tr><tr><td><div>False</div></td></tr><tr><td><div>http://web2py.com</div></td></tr><tr><td><div><table><tr><td><div><table><tr><td><div>My Sites</div></td></tr><tr><td><div>False</div></td></tr><tr><td><div>/admin/default/site</div></td></tr></table></div></td></tr><tr><td><div><table><tr><td><div>This App</div></td></tr><tr><td><div>False</div></td></tr><tr><td><div>/admin/default/design/Schedule</div></td></tr><tr><td><div>[(&lt;lazyT &#x27;Controller&#x27;&gt;, False, &#x27;/admin/default/edit/Schedule/controllers/default.py&#x27;), (&lt;lazyT &#x27;View&#x27;&gt;, False, &#x27;/admin/default/edit/Schedule/views/default/mainpage.html&#x27;), (&lt;lazyT &#x27;Layout&#x27;&gt;, False, &#x27;/admin/default/edit/Schedule/views/layout.html&#x27;), (&lt;lazyT &#x27;Stylesheet&#x27;&gt;, False, &#x27;/admin/default/edit/Schedule/static/css/web2py.css&#x27;), (&lt;lazyT &#x27;DB Model&#x27;&gt;, False, &#x27;/admin/default/edit/Schedule/models/db.py&#x27;), (&lt;lazyT &#x27;Menu Model&#x27;&gt;, False, &#x27;/admin/default/edit/Schedule/models/menu.py&#x27;), (&lt;lazyT &#x27;Database&#x27;&gt;, False, &#x27;/Schedule/appadmin/index&#x27;), (&lt;lazyT &#x27;Errors&#x27;&gt;, False, &#x27;/admin/default/errors/Schedule&#x27;), (&lt;lazyT &#x27;About&#x27;&gt;, False, &#x27;/admin/default/about/Schedule&#x27;)]</div></td></tr></table></div></td></tr><tr><td><div><table><tr><td><div>web2py.com</div></td></tr><tr><td><div>False</div></td></tr><tr><td><div>http://www.web2py.com</div></td></tr><tr><td><div>[(&lt;lazyT &#x27;Download&#x27;&gt;, False, &#x27;http://www.web2py.com/examples/default/download&#x27;), (&lt;lazyT &#x27;Support&#x27;&gt;, False, &#x27;http://www.web2py.com/examples/default/support&#x27;), (&lt;lazyT &#x27;Demo&#x27;&gt;, False, &#x27;http://web2py.com/demo_admin&#x27;), (&lt;lazyT &#x27;Quick Examples&#x27;&gt;, False, &#x27;http://web2py.com/examples/default/examples&#x27;), (&lt;lazyT &#x27;FAQ&#x27;&gt;, False, &#x27;http://web2py.com/AlterEgo&#x27;), (&lt;lazyT &#x27;Videos&#x27;&gt;, False, &#x27;http://www.web2py.com/examples/default/videos/&#x27;), (&lt;lazyT &#x27;Free Applications&#x27;&gt;, False, &#x27;http://web2py.com/appliances&#x27;), (&lt;lazyT &#x27;Plugins&#x27;&gt;, False, &#x27;http://web2py.com/plugins&#x27;), (&lt;lazyT &#x27;Layouts&#x27;&gt;, False, &#x27;http://web2py.com/layouts&#x27;), (&lt;lazyT &#x27;Recipes&#x27;&gt;, False, &#x27;http://web2pyslices.com/&#x27;), (&lt;lazyT &#x27;Semantic&#x27;&gt;, False, &#x27;http://web2py.com/semantic&#x27;)]</div></td></tr></table></div></td></tr><tr><td><div><table><tr><td><div>Documentation</div></td></tr><tr><td><div>False</div></td></tr><tr><td><div>http://www.web2py.com/book</div></td></tr><tr><td><div>[(&lt;lazyT &#x27;Preface&#x27;&gt;, False, &#x27;http://www.web2py.com/book/default/chapter/00&#x27;), (&lt;lazyT &#x27;Introduction&#x27;&gt;, False, &#x27;http://www.web2py.com/book/default/chapter/01&#x27;), (&lt;lazyT &#x27;Python&#x27;&gt;, False, &#x27;http://www.web2py.com/book/default/chapter/02&#x27;), (&lt;lazyT &#x27;Overview&#x27;&gt;, False, &#x27;http://www.web2py.com/book/default/chapter/03&#x27;), (&lt;lazyT &#x27;The Core&#x27;&gt;, False, &#x27;http://www.web2py.com/book/default/chapter/04&#x27;), (&lt;lazyT &#x27;The Views&#x27;&gt;, False, &#x27;http://www.web2py.com/book/default/chapter/05&#x27;), (&lt;lazyT &#x27;Database&#x27;&gt;, False, &#x27;http://www.web2py.com/book/default/chapter/06&#x27;), (&lt;lazyT &#x27;Forms and Validators&#x27;&gt;, False, &#x27;http://www.web2py.com/book/default/chapter/07&#x27;), (&lt;lazyT &#x27;Email and SMS&#x27;&gt;, False, &#x27;http://www.web2py.com/book/default/chapter/08&#x27;), (&lt;lazyT &#x27;Access Control&#x27;&gt;, False, &#x27;http://www.web2py.com/book/default/chapter/09&#x27;), (&lt;lazyT &#x27;Services&#x27;&gt;, False, &#x27;http://www.web2py.com/book/default/chapter/10&#x27;), (&lt;lazyT &#x27;Ajax Recipes&#x27;&gt;, False, &#x27;http://www.web2py.com/book/default/chapter/11&#x27;), (&lt;lazyT &#x27;Components and Plugins&#x27;&gt;, False, &#x27;http://www.web2py.com/book/default/chapter/12&#x27;), (&lt;lazyT &#x27;Deployment Recipes&#x27;&gt;, False, &#x27;http://www.web2py.com/book/default/chapter/13&#x27;), (&lt;lazyT &#x27;Other Recipes&#x27;&gt;, False, &#x27;http://www.web2py.com/book/default/chapter/14&#x27;), (&lt;lazyT &#x27;Buy this book&#x27;&gt;, False, &#x27;http://stores.lulu.com/web2py&#x27;)]</div></td></tr></table></div></td></tr><tr><td><div><table><tr><td><div>Community</div></td></tr><tr><td><div>False</div></td></tr><tr><td><div>None</div></td></tr><tr><td><div>[(&lt;lazyT &#x27;Groups&#x27;&gt;, False, &#x27;http://www.web2py.com/examples/default/usergroups&#x27;), (&lt;lazyT &#x27;Twitter&#x27;&gt;, False, &#x27;http://twitter.com/web2py&#x27;), (&lt;lazyT &#x27;Live Chat&#x27;&gt;, False, &#x27;http://webchat.freenode.net/?channels=web2py&#x27;)]</div></td></tr></table></div></td></tr><tr><td><div><table><tr><td><div>Plugins</div></td></tr><tr><td><div>False</div></td></tr><tr><td><div>None</div></td></tr><tr><td><div>[(&#x27;plugin_wiki&#x27;, False, &#x27;http://web2py.com/examples/default/download&#x27;), (&lt;lazyT &#x27;Other Plugins&#x27;&gt;, False, &#x27;http://web2py.com/plugins&#x27;), (&lt;lazyT &#x27;Layout Plugins&#x27;&gt;, False, &#x27;http://web2py.com/layouts&#x27;)]</div></td></tr></table></div></td></tr></table></div></td></tr></table></div></td></tr></table></div></td></tr><tr><td style="font-weight:bold;vertical-align:top;">meta</td><td style="vertical-align:top;">:</td><td><div><table><tr><td style="font-weight:bold;vertical-align:top;">author</td><td style="vertical-align:top;">:</td><td><div>Your Name &lt;you@example.com&gt;</div></td></tr><tr><td style="font-weight:bold;vertical-align:top;">generator</td><td style="vertical-align:top;">:</td><td><div>Web2py Web Framework</div></td></tr><tr><td style="font-weight:bold;vertical-align:top;">keywords</td><td style="vertical-align:top;">:</td><td><div>web2py, python, framework</div></td></tr></table></div></td></tr><tr><td style="font-weight:bold;vertical-align:top;">models_to_run</td><td style="vertical-align:top;">:</td><td><div><table><tr><td><div>^\\w+\\.py$</div></td></tr><tr><td><div>^default/\\w+\\.py$</div></td></tr><tr><td><div>^default/mainpage/\\w+\\.py$</div></td></tr></table></div></td></tr><tr><td style="font-weight:bold;vertical-align:top;">postprocessing</td><td style="vertical-align:top;">:</td><td><div><table></table></div></td></tr><tr><td style="font-weight:bold;vertical-align:top;">session_client</td><td style="vertical-align:top;">:</td><td><div>127.0.0.1</div></td></tr><tr><td style="font-weight:bold;vertical-align:top;">session_cookie_compression_level</td><td style="vertical-align:top;">:</td><td><div>None</div></td></tr><tr><td style="font-weight:bold;vertical-align:top;">session_cookie_expires</td><td style="vertical-align:top;">:</td><td><div>None</div></td></tr><tr><td style="font-weight:bold;vertical-align:top;">session_cookie_key</td><td style="vertical-align:top;">:</td><td><div>None</div></td></tr><tr><td style="font-weight:bold;vertical-align:top;">session_data_name</td><td style="vertical-align:top;">:</td><td><div>session_data_schedule</div></td></tr><tr><td style="font-weight:bold;vertical-align:top;">session_file</td><td style="vertical-align:top;">:</td><td><div>&lt;open file &#x27;/Users/Abhinav/Documents/Hobbies &amp; Stuff/Computer/Shivam/web2py/applications/Schedule/sessions/127.0.0.1-c579022b-6d9b-472d-8d85-7b9db3318d64&#x27;, mode &#x27;rb+&#x27; at 0x1102e0e40&gt;</div></td></tr><tr><td style="font-weight:bold;vertical-align:top;">session_filename</td><td style="vertical-align:top;">:</td><td><div>/Users/Abhinav/Documents/Hobbies &amp; Stuff/Computer/Shivam/web2py/applications/Schedule/sessions/127.0.0.1-c579022b-6d9b-472d-8d85-7b9db3318d64</div></td></tr><tr><td style="font-weight:bold;vertical-align:top;">session_hash</td><td style="vertical-align:top;">:</td><td><div>d603ba5d2eee6f0d13cb23b59a38a024</div></td></tr><tr><td style="font-weight:bold;vertical-align:top;">session_id</td><td style="vertical-align:top;">:</td><td><div>127.0.0.1-c579022b-6d9b-472d-8d85-7b9db3318d64</div></td></tr><tr><td style="font-weight:bold;vertical-align:top;">session_id_name</td><td style="vertical-align:top;">:</td><td><div>session_id_schedule</div></td></tr><tr><td style="font-weight:bold;vertical-align:top;">session_locked</td><td style="vertical-align:top;">:</td><td><div>True</div></td></tr><tr><td style="font-weight:bold;vertical-align:top;">session_masterapp</td><td style="vertical-align:top;">:</td><td><div>Schedule</div></td></tr><tr><td style="font-weight:bold;vertical-align:top;">session_new</td><td style="vertical-align:top;">:</td><td><div>False</div></td></tr><tr><td style="font-weight:bold;vertical-align:top;">session_storage_type</td><td style="vertical-align:top;">:</td><td><div>file</div></td></tr><tr><td style="font-weight:bold;vertical-align:top;">status</td><td style="vertical-align:top;">:</td><td><div>200</div></td></tr><tr><td style="font-weight:bold;vertical-align:top;">subtitle</td><td style="vertical-align:top;">:</td><td><div></div></td></tr><tr><td style="font-weight:bold;vertical-align:top;">title</td><td style="vertical-align:top;">:</td><td><div>Schedule</div></td></tr><tr><td style="font-weight:bold;vertical-align:top;">view</td><td style="vertical-align:top;">:</td><td><div>default/mainpage.html</div></td></tr></table></div>'
tRp400
sS'locals'
p401
(dp402
S'exc'
p403
S"ProgrammingError('ERROR', '42883', 'operator does not exist: integer == integer')"
p404
sS'msg_class'
p405
S"<class 'gluon.contrib.pg8000.protocol.RowDescription'>"
p406
sS'self'
p407
S'<gluon.contrib.pg8000.protocol.MessageReader object>'
p408
sg46
S'()'
p409
sS'handler'
p410
S'<function <lambda>>'
p411
sS'kwargs'
p412
g21
sS'msg'
p413
S"<ErrorResponse ERROR 42883 'operator does not exist: integer == integer'>"
p414
sS'msg_handled'
p415
S'False'
p416
sssS'traceback'
p417
S'Traceback (most recent call last):\n  File "/Users/Abhinav/Documents/Hobbies & Stuff/Computer/Shivam/web2py/gluon/restricted.py", line 220, in restricted\n    exec ccode in environment\n  File "/Users/Abhinav/Documents/Hobbies & Stuff/Computer/Shivam/web2py/applications/Schedule/controllers/default.py", line 91, in <module>\n  File "/Users/Abhinav/Documents/Hobbies & Stuff/Computer/Shivam/web2py/gluon/globals.py", line 385, in <lambda>\n    self._caller = lambda f: f()\n  File "/Users/Abhinav/Documents/Hobbies & Stuff/Computer/Shivam/web2py/applications/Schedule/controllers/default.py", line 81, in mainpage\n    record2 = db.executesql(\'SELECT tNo FROM usertables WHERE %s;\' %str("username==7"))\n  File "/Users/Abhinav/Documents/Hobbies & Stuff/Computer/Shivam/web2py/gluon/dal.py", line 8433, in executesql\n    adapter.execute(query)\n  File "/Users/Abhinav/Documents/Hobbies & Stuff/Computer/Shivam/web2py/gluon/dal.py", line 1969, in execute\n    return self.log_execute(*a, **b)\n  File "/Users/Abhinav/Documents/Hobbies & Stuff/Computer/Shivam/web2py/gluon/dal.py", line 1963, in log_execute\n    ret = self.cursor.execute(command, *a[1:], **b)\n  File "/Users/Abhinav/Documents/Hobbies & Stuff/Computer/Shivam/web2py/gluon/contrib/pg8000/dbapi.py", line 246, in _fn\n    return fn(self, *args, **kwargs)\n  File "/Users/Abhinav/Documents/Hobbies & Stuff/Computer/Shivam/web2py/gluon/contrib/pg8000/dbapi.py", line 317, in execute\n    self._execute(operation, args)\n  File "/Users/Abhinav/Documents/Hobbies & Stuff/Computer/Shivam/web2py/gluon/contrib/pg8000/dbapi.py", line 322, in _execute\n    self.cursor.execute(new_query, *new_args)\n  File "/Users/Abhinav/Documents/Hobbies & Stuff/Computer/Shivam/web2py/gluon/contrib/pg8000/interface.py", line 398, in execute\n    self._stmt = PreparedStatement(self.connection, query, statement_name="", *[{"type": type(x), "value": x} for x in args])\n  File "/Users/Abhinav/Documents/Hobbies & Stuff/Computer/Shivam/web2py/gluon/contrib/pg8000/interface.py", line 138, in __init__\n    self._parse_row_desc = self.c.parse(self._statement_name, statement, types)\n  File "/Users/Abhinav/Documents/Hobbies & Stuff/Computer/Shivam/web2py/gluon/contrib/pg8000/protocol.py", line 943, in _fn\n    return fn(self, *args, **kwargs)\n  File "/Users/Abhinav/Documents/Hobbies & Stuff/Computer/Shivam/web2py/gluon/contrib/pg8000/protocol.py", line 1104, in parse\n    return reader.handle_messages()\n  File "/Users/Abhinav/Documents/Hobbies & Stuff/Computer/Shivam/web2py/gluon/contrib/pg8000/protocol.py", line 929, in handle_messages\n    raise exc\nProgrammingError: (\'ERROR\', \'42883\', \'operator does not exist: integer == integer\')\n'
p418
s.